******************************************************************************
                  TI ARM Linker PC v15.12.3                    
******************************************************************************
>> Linked Sun Sep 06 20:25:38 2020

OUTPUT FILE NAME:   <sensortag_cc2650stk_stack.out>
ENTRY POINT SYMBOL: "startup_entry"  address: 00010001


MEMORY CONFIGURATION

         name            origin    length      used     unused   attr    fill
----------------------  --------  ---------  --------  --------  ----  --------
  FLASH                 00000000   0001f000  0000e173  00010e8d  R  X
  SRAM                  20000000   000048e7  000004e8  000043ff  RW X


SEGMENT ALLOCATION MAP

run origin  load origin   length   init length attrs members
----------  ----------- ---------- ----------- ----- -------
00010000    00010000    0000e173   0000e173    r-x
  00010000    00010000    0000004c   0000004c    r-x EntrySection
  0001004c    0001004c    0000d5f0   0000d5f0    r-x .text
  0001d63c    0001d63c    000006f4   000006f4    r-- .const
  0001dd30    0001dd30    0000006e   0000006e    r-- .rodata
  0001dda0    0001dda0    000003d3   000003d3    r-- .cinit
200043f8    200043f8    000004ec   00000000    rw-
  200043f8    200043f8    00000144   00000000    rw- .bss
  20004540    20004540    000003a4   00000000    rw- .data


SECTION ALLOCATION MAP

 output                                  attributes/
section   page    origin      length       input sections
--------  ----  ----------  ----------   ----------------
EntrySection 
*          0    00010000    0000004c     
                  00010000    0000002c     icall_startup.obj (EntrySection)
                  0001002c    00000008     rtsv7M3_T_le_eabi.lib : autoinit.obj (.tramp.__TI_auto_init.1)
                  00010034    00000008     <whole-program> (.tramp.CommonROM_Init.1)
                  0001003c    00000008     <whole-program> (.tramp.ROM_Init.1)
                  00010044    00000008     <whole-program> (.tramp.stack_main.1)

.text      0    0001004c    0000d5f0     
                  0001004c    000001ec     host_pxxx.a : att_server.o (.text)
                  00010238    000005cc                 : att_util.o (.text)
                  00010804    00000348                 : gap_configmgr.o (.text)
                  00010b4c    000000b0                 : gap_devmgr.o (.text)
                  00010bfc    000009b8                 : gap_linkmgr.o (.text)
                  000115b4    00000624                 : gap_peridevmgr.o (.text)
                  00011bd8    00000110                 : gap_perilinkmgr.o (.text)
                  00011ce8    000002ec                 : gap_task.o (.text)
                  00011fd4    0000032c                 : gapgattserver.o (.text)
                  00012300    00000b16                 : gatt_server.o (.text)
                  00012e16    00000002     rtsv7M3_T_le_eabi.lib : startup.obj (.text)
                  00012e18    000002f6     host_pxxx.a : gatt_task.o (.text)
                  0001310e    00000002     --HOLE-- [fill = 0]
                  00013110    0000013e                 : gatt_uuid.o (.text)
                  0001324e    00000002     --HOLE-- [fill = 0]
                  00013250    00000fcc                 : gattservapp.o (.text)
                  0001421c    0000017e                 : l2cap_if.o (.text)
                  0001439a    00000002     --HOLE-- [fill = 0]
                  0001439c    000002b0                 : l2cap_task.o (.text)
                  0001464c    0000068c                 : l2cap_util.o (.text)
                  00014cd8    000002ec                 : linkdb.o (.text)
                  00014fc4    000006a0                 : sm_mgr.o (.text)
                  00015664    000007e4                 : sm_pairing.o (.text)
                  00015e48    00000570                 : sm_rsppairing.o (.text)
                  000163b8    000000e8                 : sm_task.o (.text)
                  000164a0    0000039c                 : smp.o (.text)
                  0001683c    0000065c     cc2640_ctrl_pxxx_ext.a : ble_patch.o (.text)
                  00016e98    000000a8                            : hci_data_patch.o (.text)
                  00016f40    000005d8                            : hci_event_patch.o (.text)
                  00017518    000003a8                            : hci_patch.o (.text)
                  000178c0    00000458                            : ll_adv_end_causes_patch.o (.text)
                  00017d18    00000d34                            : ll_common_patch.o (.text)
                  00018a4c    0000014c                            : ll_enc_patch.o (.text)
                  00018b98    000018d4                            : ll_patch.o (.text)
                  0001a46c    00000010                            : ll_rat_patch.o (.text)
                  0001a47c    000001a8                            : ll_scheduler_patch.o (.text)
                  0001a624    0000076a                            : ll_slave_end_causes_patch.o (.text)
                  0001ad8e    00000002     --HOLE-- [fill = 0]
                  0001ad90    00000046                            : ll_sleep.o (.text)
                  0001add6    000000ae                            : ll_wl_patch.o (.text)
                  0001ae84    000003ec                            : ll_isr.o (.text)
                  0001b270    000000a8     cc26xx_hci_tl_none_v41_v42.a : hci_tl.o (.text)
                  0001b318    00000070     rtsv7M3_T_le_eabi.lib : autoinit.obj (.text)
                  0001b388    00000018                           : ll_mul_t2.obj (.text)
                  0001b3a0    0000009c                           : memcpy_t2.obj (.text)
                  0001b43c    0000007a                           : memset_t2.obj (.text)
                  0001b4b6    000001f4                           : ull_div_t2.obj (.text)
                  0001b6aa    0000000c     driverlib.lib : cpu.obj (.text:NOROM_CPUcpsie)
                  0001b6b6    0000000c                   : cpu.obj (.text:NOROM_CPUcpsid)
                  0001b6c2    00000002     --HOLE-- [fill = 0]
                  0001b6c4    000002c8     osal_timers.obj (.text)
                  0001b98c    00000094     rom_jt.obj (.text)
                  0001ba20    00000024     driverlib.lib : trng.obj (.text:NOROM_TRNGConfigure)
                  0001ba44    00000060     hal_trng_wrapper.obj (.text)
                  0001baa4    00000034     hal_assert.obj (.text)
                  0001bad8    00000068     driverlib.lib : interrupt.obj (.text:NOROM_IntDisable)
                  0001bb40    0000005c                   : interrupt.obj (.text:NOROM_IntEnable)
                  0001bb9c    00000014     onboard.obj (.text)
                  0001bbb0    000000d0     osal_bufmgr.obj (.text)
                  0001bc80    00000754     osal.obj (.text)
                  0001c3d4    0000019c     osal_cbtimer.obj (.text)
                  0001c570    000008dc     ble_dispatch.obj (.text)
                  0001ce4c    00000008     osal_snv_wrapper.obj (.text)
                  0001ce54    00000040     gap.obj (.text)
                  0001ce94    000000a0     osal_pwrmgr.obj (.text)
                  0001cf34    00000068     osal_clock.obj (.text)
                  0001cf9c    00000048     osal_memory_icall.obj (.text)
                  0001cfe4    0000006c     ble_user_config.obj (.text)
                  0001d050    00000110     osal_icall_ble.obj (.text)
                  0001d160    00000014     rtsv7M3_T_le_eabi.lib : strlen.obj (.text)
                  0001d174    0000004c                           : cpy_tbl.obj (.text)
                  0001d1c0    0000006a                           : copy_decompress_rle.obj (.text)
                  0001d22a    00000006                           : copy_decompress_rle.obj (.text:decompress:rle24)
                  0001d230    0000000e                           : copy_decompress_none.obj (.text:decompress:none)
                  0001d23e    00000002     --HOLE-- [fill = 0]
                  0001d240    00000064     gattservapp_util.obj (.text)
                  0001d2a4    00000008     ble_rom_patch.symbols (.tramp.HCI_ReadBDADDRCmd.1)
                  0001d2ac    00000008     ble_rom_patch.symbols (.tramp.HCI_LE_SetRandomAddressCmd.1)
                  0001d2b4    00000008     ble_rom_patch.symbols (.tramp.LL_ReadBDADDR.1)
                  0001d2bc    00000008     ble_rom_patch.symbols (.tramp.HCI_DisconnectCmd.1)
                  0001d2c4    00000008     ble_rom_patch.symbols (.tramp.HCI_LE_SetAdvDataCmd.1)
                  0001d2cc    00000008     ble_rom_patch.symbols (.tramp.HCI_LE_SetScanRspDataCmd.1)
                  0001d2d4    00000008     ble_rom_patch.symbols (.tramp.HCI_LE_SetAdvEnableCmd.1)
                  0001d2dc    00000008     ble_rom_patch.symbols (.tramp.HCI_LE_SetAdvParamCmd.1)
                  0001d2e4    00000008     ble_rom_patch.symbols (.tramp.HCI_SetControllerToHostFlowCtrlCmd.1)
                  0001d2ec    00000008     ble_rom_patch.symbols (.tramp.HCI_HostBufferSizeCmd.1)
                  0001d2f4    00000008     ble_rom_patch.symbols (.tramp.HCI_HostNumCompletedPktCmd.1)
                  0001d2fc    00000008     ble_rom_patch.symbols (.tramp.HCI_SendDataPkt.1)
                  0001d304    00000008     ble_rom_patch.symbols (.tramp.HCI_bm_alloc.1)
                  0001d30c    00000008     ble_rom_patch.symbols (.tramp.LL_Encrypt.1)
                  0001d314    00000008     ble_rom_patch.symbols (.tramp.HCI_LE_LtkReqReplyCmd.1)
                  0001d31c    00000008     ble_rom_patch.symbols (.tramp.HCI_LE_LtkReqNegReplyCmd.1)
                  0001d324    00000008     ble_rom_patch.symbols (.tramp.llMemCopySrc.1)
                  0001d32c    00000008     ble_rom_patch.symbols (.tramp.LL_ENC_ReverseBytes.1)
                  0001d334    00000008     ble_rom_patch.symbols (.tramp.LL_ENC_GenDeviceSKD.1)
                  0001d33c    00000008     ble_rom_patch.symbols (.tramp.LL_ENC_GenDeviceIV.1)
                  0001d344    00000008     ble_rom_patch.symbols (.tramp.llEnqueueCtrlPkt.1)
                  0001d34c    00000008     ble_rom_patch.symbols (.tramp.llSetupUnknownRsp.1)
                  0001d354    00000008     ble_rom_patch.symbols (.tramp.LL_RX_bm_alloc.1)
                  0001d35c    00000008     ble_rom_patch.symbols (.tramp.llPatchCM0.1)
                  0001d364    00000008     ble_rom_patch.symbols (.tramp.RFHAL_AllocRatChan.1)
                  0001d36c    00000008     ble_rom_patch.symbols (.tramp.RFHAL_RegisterRatChanCallback.1)
                  0001d374    00000008     ble_rom_patch.symbols (.tramp.LL_CtrlToHostFlowControl.1)
                  0001d37c    00000008     ble_rom_patch.symbols (.tramp.HCI_SendCommandCompleteEvent.1)
                  0001d384    00000008     ble_rom_patch.symbols (.tramp.HCI_CommandCompleteEvent.1)
                  0001d38c    00000008     ble_rom_patch.symbols (.tramp.HCI_CommandStatusEvent.1)
                  0001d394    00000008     ble_rom_patch.symbols (.tramp.LL_EXT_ResetSystem.1)
                  0001d39c    00000008     ble_rom_patch.symbols (.tramp.LL_ReadLocalVersionInfo.1)
                  0001d3a4    00000008     ble_rom_patch.symbols (.tramp.llFreeTask.1)
                  0001d3ac    00000008     ble_rom_patch.symbols (.tramp.LL_ENC_GeneratePseudoRandNum.1)
                  0001d3b4    00000008     ble_rom_patch.symbols (.tramp.llScheduler.1)
                  0001d3bc    00000008     ble_rom_patch.symbols (.tramp.llConvertLstoToEvent.1)
                  0001d3c4    00000008     ble_rom_patch.symbols (.tramp.llConvertCtrlProcTimeoutToEvent.1)
                  0001d3cc    00000008     ble_rom_patch.symbols (.tramp.llCalcScaFactor.1)
                  0001d3d4    00000008     ble_rom_patch.symbols (.tramp.llConnTerminate.1)
                  0001d3dc    00000008     ble_rom_patch.symbols (.tramp.RFHAL_InitDataQueue.1)
                  0001d3e4    00000008     ble_rom_patch.symbols (.tramp.llEventDelta.1)
                  0001d3ec    00000008     ble_rom_patch.symbols (.tramp.LL_TX_bm_alloc.1)
                  0001d3f4    00000008     ble_rom_patch.symbols (.tramp.RFHAL_FreeNextTxDataEntry.1)
                  0001d3fc    00000008     ble_rom_patch.symbols (.tramp.RFHAL_GetNextDataEntry.1)
                  0001d404    00000008     ble_rom_patch.symbols (.tramp.RFHAL_GetTempDataEntry.1)
                  0001d40c    00000008     ble_rom_patch.symbols (.tramp.llReleaseConnId.1)
                  0001d414    00000008     ble_rom_patch.symbols (.tramp.llTimeCompare.1)
                  0001d41c    00000008     ble_rom_patch.symbols (.tramp.HCI_HardwareErrorEvent.1)
                  0001d424    00000008     ble_rom_patch.symbols (.tramp.llGetCurrentTask.1)
                  0001d42c    00000008     ble_rom_patch.symbols (.tramp.llTimeDelta.1)
                  0001d434    00000008     ble_rom_patch.symbols (.tramp.llSetupRejectInd.1)
                  0001d43c    00000008     ble_rom_patch.symbols (.tramp.LL_ENC_Init.1)
                  0001d444    00000008     ble_rom_patch.symbols (.tramp.LL_ENC_LoadKey.1)
                  0001d44c    00000008     ble_rom_patch.symbols (.tramp.LL_ENC_GenerateNonce.1)
                  0001d454    00000008     ble_rom_patch.symbols (.tramp.LL_ENC_EncryptMsg.1)
                  0001d45c    00000008     ble_rom_patch.symbols (.tramp.LL_ENC_DecryptMsg.1)
                  0001d464    00000008     ble_rom_patch.symbols (.tramp.LL_ENC_GenerateTrueRandNum.1)
                  0001d46c    00000008     ble_rom_patch.symbols (.tramp.WL_Init.1)
                  0001d474    00000008     ble_rom_patch.symbols (.tramp.LL_ClearWhiteList.1)
                  0001d47c    00000008     ble_rom_patch.symbols (.tramp.llReleaseAllConnId.1)
                  0001d484    00000008     ble_rom_patch.symbols (.tramp.LL_ConnActive.1)
                  0001d48c    00000008     ble_rom_patch.symbols (.tramp.HCI_DataBufferOverflowEvent.1)
                  0001d494    00000008     ble_rom_patch.symbols (.tramp.LL_DirectTestEndDoneCback.1)
                  0001d49c    00000008     ble_rom_patch.symbols (.tramp.llGetActiveTasks.1)
                  0001d4a4    00000008     ble_rom_patch.symbols (.tramp.llSetupAdv.1)
                  0001d4ac    00000008     ble_rom_patch.symbols (.tramp.llGetNumTasks.1)
                  0001d4b4    00000008     ble_rom_patch.symbols (.tramp.llCheckForLstoDuringSL.1)
                  0001d4bc    00000008     ble_rom_patch.symbols (.tramp.llEventInRange.1)
                  0001d4c4    00000008     ble_rom_patch.symbols (.tramp.LL_EncLtkReqCback.1)
                  0001d4cc    00000008     ble_rom_patch.symbols (.tramp.llSetupEncRsp.1)
                  0001d4d4    00000008     ble_rom_patch.symbols (.tramp.LL_ENC_AES128_Encrypt.1)
                  0001d4dc    00000008     ble_rom_patch.symbols (.tramp.LL_EncKeyRefreshCback.1)
                  0001d4e4    00000008     ble_rom_patch.symbols (.tramp.LL_EncChangeCback.1)
                  0001d4ec    00000008     ble_rom_patch.symbols (.tramp.llSetupStartEncRsp.1)
                  0001d4f4    00000008     ble_rom_patch.symbols (.tramp.llSetupPauseEncRsp.1)
                  0001d4fc    00000008     ble_rom_patch.symbols (.tramp.LL_ReadRemoteVersionInfoCback.1)
                  0001d504    00000008     ble_rom_patch.symbols (.tramp.llSetupVersionIndReq.1)
                  0001d50c    00000008     ble_rom_patch.symbols (.tramp.llMoveTempTxDataEntries.1)
                  0001d514    00000008     ble_rom_patch.symbols (.tramp.WL_ClearEntry.1)
                  0001d51c    00000008     ble_rom_patch.symbols (.tramp.RFHAL_NextDataEntryDone.1)
                  0001d524    00000008     ble_rom_patch.symbols (.tramp.LL_PseudoRand.1)
                  0001d52c    00000008     ble_rom_patch.symbols (.tramp.HCI_EXT_NumComplPktsLimitCmd.1)
                  0001d534    00000008     ble_rom_patch.symbols (.tramp.HCI_EXT_BuildRevisionCmd.1)
                  0001d53c    00000008     ble_rom_patch.symbols (.tramp.HCI_EXT_SetSlaveLatencyOverrideCmd.1)
                  0001d544    00000008     ble_rom_patch.symbols (.tramp.HCI_EXT_AdvEventNoticeCmd.1)
                  0001d54c    00000008     ble_rom_patch.symbols (.tramp.HCI_EXT_PERbyChanCmd.1)
                  0001d554    00000008     ble_rom_patch.symbols (.tramp.HCI_EXT_PacketErrorRateCmd.1)
                  0001d55c    00000008     ble_rom_patch.symbols (.tramp.HCI_EXT_DisconnectImmedCmd.1)
                  0001d564    00000008     ble_rom_patch.symbols (.tramp.HCI_EXT_SetMaxDtmTxPowerCmd.1)
                  0001d56c    00000008     ble_rom_patch.symbols (.tramp.HCI_EXT_EnablePTMCmd.1)
                  0001d574    00000008     ble_rom_patch.symbols (.tramp.HCI_EXT_SetSCACmd.1)
                  0001d57c    00000008     ble_rom_patch.symbols (.tramp.HCI_EXT_SetBDADDRCmd.1)
                  0001d584    00000008     ble_rom_patch.symbols (.tramp.HCI_EXT_EndModemTestCmd.1)
                  0001d58c    00000008     ble_rom_patch.symbols (.tramp.HCI_EXT_ModemTestRxCmd.1)
                  0001d594    00000008     ble_rom_patch.symbols (.tramp.HCI_EXT_ModemHopTestTxCmd.1)
                  0001d59c    00000008     ble_rom_patch.symbols (.tramp.HCI_EXT_ModemTestTxCmd.1)
                  0001d5a4    00000008     ble_rom_patch.symbols (.tramp.HCI_EXT_SetFastTxResponseTimeCmd.1)
                  0001d5ac    00000008     ble_rom_patch.symbols (.tramp.HCI_EXT_SetLocalSupportedFeaturesCmd.1)
                  0001d5b4    00000008     ble_rom_patch.symbols (.tramp.HCI_EXT_DecryptCmd.1)
                  0001d5bc    00000008     ble_rom_patch.symbols (.tramp.HCI_EXT_OnePktPerEvtCmd.1)
                  0001d5c4    00000008     ble_rom_patch.symbols (.tramp.HCI_EXT_SetTxPowerCmd.1)
                  0001d5cc    00000008     ble_rom_patch.symbols (.tramp.HCI_LE_TestEndCmd.1)
                  0001d5d4    00000008     ble_rom_patch.symbols (.tramp.HCI_LE_ReadSupportedStatesCmd.1)
                  0001d5dc    00000008     ble_rom_patch.symbols (.tramp.HCI_LE_EncryptCmd.1)
                  0001d5e4    00000008     ble_rom_patch.symbols (.tramp.HCI_LE_ReadChannelMapCmd.1)
                  0001d5ec    00000008     ble_rom_patch.symbols (.tramp.HCI_LE_RemoveWhiteListCmd.1)
                  0001d5f4    00000008     ble_rom_patch.symbols (.tramp.HCI_LE_AddWhiteListCmd.1)
                  0001d5fc    00000008     ble_rom_patch.symbols (.tramp.HCI_LE_ClearWhiteListCmd.1)
                  0001d604    00000008     ble_rom_patch.symbols (.tramp.HCI_LE_ReadWhiteListSizeCmd.1)
                  0001d60c    00000008     ble_rom_patch.symbols (.tramp.HCI_LE_ReadAdvChanTxPowerCmd.1)
                  0001d614    00000008     ble_rom_patch.symbols (.tramp.HCI_LE_ReadLocalSupportedFeaturesCmd.1)
                  0001d61c    00000008     ble_rom_patch.symbols (.tramp.HCI_ReadLocalSupportedFeaturesCmd.1)
                  0001d624    00000008     ble_rom_patch.symbols (.tramp.HCI_ReadTransmitPowerLevelCmd.1)
                  0001d62c    00000008     ble_rom_patch.symbols (.tramp.HCI_SetEventMaskCmd.1)
                  0001d634    00000008     ble_rom_patch.symbols (.tramp.HCI_ReadRemoteVersionInfoCmd.1)

.const     0    0001d63c    000006f4     
                  0001d63c    00000024     osal_icall_ble.obj (.const:tasksArr)
                  0001d660    000006d0     rom_jt.obj (.const:$O11$$)

.constdata 
*          0    0001dd30    00000000     UNINITIALIZED

.rodata    0    0001dd30    0000006e     
                  0001dd30    00000008     host_pxxx.a : gapgattserver.o (.rodata)
                  0001dd38    00000008                 : gattservapp.o (.rodata)
                  0001dd40    0000005c     cc2640_ctrl_pxxx_ext.a : ll_config.o (.rodata)
                  0001dd9c    00000002                            : ll_patch.o (.rodata)

.cinit     0    0001dda0    000003d3     
                  0001dda0    00000008     (__TI_handler_table)
                  0001dda8    00000010     (__TI_cinit_table)
                  0001ddb8    000003ac     (.cinit..data.load) [load image]
                  0001e164    00000004     --HOLE-- [fill = 0]
                  0001e168    0000000b     (.cinit..bss.load) [load image, compression = rle]

.pinit     0    0001e173    00000000     UNINITIALIZED

.init_array 
*          0    0001e173    00000000     UNINITIALIZED

.emb_text 
*          0    0001e173    00000000     UNINITIALIZED

.bss       0    200043f8    00000144     UNINITIALIZED
                  200043f8    00000004     host_pxxx.a : att_server.o (.bss)
                  200043fc    00000004                 : gap_devmgr.o (.bss)
                  20004400    00000004                 : gap_devmgr.o (.bss)
                  20004404    00000001                 : gap_devmgr.o (.bss)
                  20004405    00000002                 : gatt_task.o (.bss)
                  20004407    00000001                 : l2cap_if.o (.bss)
                  20004408    00000004                 : gap_linkmgr.o (.bss)
                  2000440c    00000004                 : gap_task.o (.bss)
                  20004410    00000004                 : gapgattserver.o (.bss)
                  20004414    00000004                 : gatt_server.o (.bss)
                  20004418    00000008                 : gatt_task.o (.bss)
                  20004420    00000024                 : gattservapp.o (.bss)
                  20004444    00000004                 : gattservapp.o (.bss)
                  20004448    00000030                 : l2cap_task.o (.bss)
                  20004478    00000001                 : l2cap_util.o (.bss)
                  20004479    00000001                 : sm_task.o (.bss)
                  2000447a    00000002     cc2640_ctrl_pxxx_ext.a : ll_slave_end_causes_patch.o (.bss)
                  2000447c    00000038     host_pxxx.a : linkdb.o (.bss)
                  200044b4    0000000c                 : sm_pairing.o (.bss)
                  200044c0    00000010     cc2640_ctrl_pxxx_ext.a : hci_event_patch.o (.bss)
                  200044d0    00000008                            : ll_patch.o (.bss)
                  200044d8    00000001     cc26xx_hci_tl_none_v41_v42.a : hci_tl.o (.bss)
                  200044d9    00000001                                  : hci_tl.o (.bss)
                  200044da    00000001                                  : hci_tl.o (.bss)
                  200044db    00000001                                  : hci_tl.o (.bss)
                  200044dc    00000001                                  : hci_tl.o (.bss)
                  200044dd    00000001                                  : hci_tl.o (.bss)
                  200044de    00000002     --HOLE--
                  200044e0    00000004     hal_trng_wrapper.obj (.bss)
                  200044e4    0000003c     ble_dispatch.obj (.bss:$O3$$)
                  20004520    0000000c     osal_timers.obj (.bss:$O8$$)
                  2000452c    0000000c     icall_startup.obj (.bss:$O10$$)
                  20004538    00000004     (.common:tasksEvents)

.data      0    20004540    000003a4     UNINITIALIZED
                  20004540    0000002c     host_pxxx.a : gap_configmgr.o (.data)
                  2000456c    00000050                 : gap_configmgr.o (.data)
                  200045bc    0000001c                 : gap_linkmgr.o (.data)
                  200045d8    0000001c                 : gap_peridevmgr.o (.data)
                  200045f4    00000004                 : gap_perilinkmgr.o (.data)
                  200045f8    0000000c                 : gap_task.o (.data)
                  20004604    00000001                 : gapgattserver.o (.data)
                  20004605    00000001                 : gapgattserver.o (.data)
                  20004606    00000001                 : gapgattserver.o (.data)
                  20004607    00000001                 : gatt_server.o (.data)
                  20004608    00000024                 : gapgattserver.o (.data)
                  2000462c    00000070                 : gapgattserver.o (.data)
                  2000469c    00000008                 : gatt_server.o (.data)
                  200046a4    00000001                 : gatt_task.o (.data)
                  200046a5    00000001                 : gattservapp.o (.data)
                  200046a6    00000002                 : l2cap_task.o (.data)
                  200046a8    00000010                 : gattservapp.o (.data)
                  200046b8    00000008                 : l2cap_task.o (.data)
                  200046c0    00000010                 : sm_rsppairing.o (.data)
                  200046d0    0000000c     cc2640_ctrl_pxxx_ext.a : ll_common_patch.o (.data)
                  200046dc    00000020                            : ll_config.o (.data)
                  200046fc    00000004     osal_bufmgr.obj (.data)
                  20004700    00000128     cc2640_ctrl_pxxx_ext.a : ll_patch.o (.data)
                  20004828    00000008     hal_assert.obj (.data:$O1$$)
                  20004830    0000002c     osal.obj (.data:$O4$$)
                  2000485c    0000007c     osal_cbtimer.obj (.data:$O5$$)
                  200048d8    00000008     osal_clock.obj (.data:$O6$$)
                  200048e0    00000004     osal_pwrmgr.obj (.data:$O7$$)

MODULE SUMMARY

       Module                        code    ro data   rw data
       ------                        ----    -------   -------
    .\HAL\Common\
       hal_assert.obj                52      0         8      
    +--+-----------------------------+-------+---------+---------+
       Total:                        52      0         8      
                                                              
    .\HAL\Target\CC2650\Drivers\
       hal_trng_wrapper.obj          96      0         4      
    +--+-----------------------------+-------+---------+---------+
       Total:                        96      0         4      
                                                              
    .\ICallBLE\
       ble_dispatch.obj              2268    0         60     
    +--+-----------------------------+-------+---------+---------+
       Total:                        2268    0         60     
                                                              
    .\OSAL\
       osal.obj                      1876    0         44     
       osal_timers.obj               712     0         12     
       osal_cbtimer.obj              412     0         124    
       osal_bufmgr.obj               208     0         4      
       osal_pwrmgr.obj               160     0         4      
       osal_clock.obj                104     0         8      
       osal_memory_icall.obj         72      0         0      
       osal_snv_wrapper.obj          8       0         0      
    +--+-----------------------------+-------+---------+---------+
       Total:                        3552    0         196    
                                                              
    .\PROFILES\
       gattservapp_util.obj          100     0         0      
       gap.obj                       64      0         0      
    +--+-----------------------------+-------+---------+---------+
       Total:                        164     0         0      
                                                              
    .\Startup\
       rom_jt.obj                    148     1744      0      
       osal_icall_ble.obj            272     36        0      
       ble_user_config.obj           108     0         0      
       icall_startup.obj             44      0         12     
    +--+-----------------------------+-------+---------+---------+
       Total:                        572     1780      12     
                                                              
    .\TOOLS\
       onboard.obj                   20      0         0      
    +--+-----------------------------+-------+---------+---------+
       Total:                        20      0         0      
                                                              
    C:\Users\adeel\AppData\Local\Temp\
       341882                        24      0         4      
    +--+-----------------------------+-------+---------+---------+
       Total:                        24      0         4      
                                                              
    C:\ti\simplelink\ble_sdk_2_02_01_18\src\rom\ble_rom_releases\04242014\
       ble_rom_patch.symbols         920     0         0      
    +--+-----------------------------+-------+---------+---------+
       Total:                        920     0         0      
                                                              
    C:/ti/tirtos_cc13xx_cc26xx_2_20_01_08/products/cc26xxware_2_24_02_17393/driverlib/bin/ccs/driverlib.lib
       interrupt.obj                 196     0         0      
       trng.obj                      36      0         0      
       cpu.obj                       24      0         0      
    +--+-----------------------------+-------+---------+---------+
       Total:                        256     0         0      
                                                              
    C:\ti\ccsv6\tools\compiler\arm_15.12.3.LTS\lib\rtsv7M3_T_le_eabi.lib
       ull_div_t2.obj                500     0         0      
       memcpy_t2.obj                 156     0         0      
       memset_t2.obj                 122     0         0      
       autoinit.obj                  120     0         0      
       copy_decompress_rle.obj       112     0         0      
       cpy_tbl.obj                   76      0         0      
       ll_mul_t2.obj                 24      0         0      
       strlen.obj                    20      0         0      
       copy_decompress_none.obj      14      0         0      
       startup.obj                   2       0         0      
    +--+-----------------------------+-------+---------+---------+
       Total:                        1146    0         0      
                                                              
    C:\ti\simplelink\ble_sdk_2_02_01_18\blelib\ctrl\cc2640\cc2640_ctrl_pxxx_ext.a
       ll_patch.o                    6356    2         304    
       ll_common_patch.o             3380    0         12     
       ll_slave_end_causes_patch.o   1898    0         2      
       ble_patch.o                   1628    0         0      
       hci_event_patch.o             1496    0         16     
       ll_adv_end_causes_patch.o     1112    0         0      
       ll_isr.o                      1004    0         0      
       hci_patch.o                   936     0         0      
       ll_scheduler_patch.o          424     0         0      
       ll_enc_patch.o                332     0         0      
       ll_wl_patch.o                 174     0         0      
       hci_data_patch.o              168     0         0      
       ll_config.o                   0       92        32     
       ll_sleep.o                    70      0         0      
       ll_rat_patch.o                16      0         0      
    +--+-----------------------------+-------+---------+---------+
       Total:                        18994   94        366    
                                                              
    C:\ti\simplelink\ble_sdk_2_02_01_18\blelib\hci_tl\cc26xx\cc26xx_hci_tl_none_v41_v42.a
       hci_tl.o                      168     0         6      
    +--+-----------------------------+-------+---------+---------+
       Total:                        168     0         6      
                                                              
    C:\ti\simplelink\ble_sdk_2_02_01_18\blelib\host\host_pxxx.a
       gattservapp.o                 4044    8         57     
       gatt_server.o                 2838    0         13     
       gap_linkmgr.o                 2488    0         32     
       sm_pairing.o                  2020    0         12     
       sm_mgr.o                      1696    0         0      
       l2cap_util.o                  1676    0         1      
       gap_peridevmgr.o              1572    0         28     
       att_util.o                    1484    0         0      
       sm_rsppairing.o               1392    0         16     
       gapgattserver.o               812     8         155    
       gap_configmgr.o               840     0         124    
       smp.o                         924     0         0      
       linkdb.o                      748     0         56     
       gatt_task.o                   758     0         11     
       gap_task.o                    748     0         16     
       l2cap_task.o                  688     0         58     
       att_server.o                  492     0         4      
       l2cap_if.o                    382     0         1      
       gatt_uuid.o                   318     0         0      
       gap_perilinkmgr.o             272     0         4      
       sm_task.o                     232     0         1      
       gap_devmgr.o                  176     0         9      
    +--+-----------------------------+-------+---------+---------+
       Total:                        26600   16        598    
                                                              
       Linker Generated:             0       975       0      
    +--+-----------------------------+-------+---------+---------+
       Grand Total:                  54832   2865      1254   


LINKER GENERATED COPY TABLES

__TI_cinit_table @ 0001dda8 records: 2, size/record: 8, table size: 16
	.data: load addr=0001ddb8, load size=000003ac bytes, run addr=20004540, run size=000003a4 bytes, compression=copy
	.bss: load addr=0001e168, load size=0000000b bytes, run addr=200043f8, run size=00000144 bytes, compression=rle


LINKER GENERATED HANDLER TABLE

__TI_handler_table @ 0001dda0 records: 2, size/record: 4, table size: 8
	index: 0, handler: __TI_decompress_rle24
	index: 1, handler: __TI_decompress_none


FAR CALL TRAMPOLINES

callee name               trampoline name
   callee addr  tramp addr   call addr  call info
--------------  -----------  ---------  ----------------
__TI_auto_init            $Tramp$TT$S$$__TI_auto_init
   0001b319     0001002c     00010006   icall_startup.obj (EntrySection)
CommonROM_Init            $Tramp$TT$S$$CommonROM_Init
   0001b9c3     00010034     00010018   icall_startup.obj (EntrySection)
ROM_Init                  $Tramp$TT$S$$ROM_Init
   0001b9e3     0001003c     0001001c   icall_startup.obj (EntrySection)
stack_main                $Tramp$TT$S$$stack_main
   0001d117     00010044     00010022   icall_startup.obj (EntrySection)
HCI_ReadBDADDRCmd         $Tramp$TT$L$PI$$HCI_ReadBDADDRCmd
   10009765     0001d2a4     00010846   host_pxxx.a : gap_configmgr.o (.text)
                             0001cd04   ble_dispatch.obj (.text)
HCI_LE_SetRandomAddressCmd  $Tramp$TT$L$PI$$HCI_LE_SetRandomAddressCmd
   10009849     0001d2ac     00010a16   host_pxxx.a : gap_configmgr.o (.text)
LL_ReadBDADDR             $Tramp$TT$L$PI$$LL_ReadBDADDR
   100056c9     0001d2b4     00010ae4   host_pxxx.a : gap_configmgr.o (.text)
HCI_DisconnectCmd         $Tramp$TT$L$PI$$HCI_DisconnectCmd
   10009525     0001d2bc     00010c66   host_pxxx.a : gap_linkmgr.o (.text)
                             00011212               : gap_linkmgr.o (.text)
HCI_LE_SetAdvDataCmd      $Tramp$TT$L$PI$$HCI_LE_SetAdvDataCmd
   100098a1     0001d2c4     0001169c   host_pxxx.a : gap_peridevmgr.o (.text)
                             00011b34               : gap_peridevmgr.o (.text)
HCI_LE_SetScanRspDataCmd  $Tramp$TT$L$PI$$HCI_LE_SetScanRspDataCmd
   100098bd     0001d2cc     000116a6   host_pxxx.a : gap_peridevmgr.o (.text)
                             00011b3e               : gap_peridevmgr.o (.text)
HCI_LE_SetAdvEnableCmd    $Tramp$TT$L$PI$$HCI_LE_SetAdvEnableCmd
   100098d9     0001d2d4     000116f6   host_pxxx.a : gap_peridevmgr.o (.text)
                             000118c4               : gap_peridevmgr.o (.text)
HCI_LE_SetAdvParamCmd     $Tramp$TT$L$PI$$HCI_LE_SetAdvParamCmd
   1000986d     0001d2dc     00011a0c   host_pxxx.a : gap_peridevmgr.o (.text)
HCI_SetControllerToHostFlowCtrlCmd  $Tramp$TT$L$PI$$HCI_SetControllerToHostFlowCtrlCmd
   100095f5     0001d2e4     0001432c   host_pxxx.a : l2cap_if.o (.text)
                             0001434c               : l2cap_if.o (.text)
HCI_HostBufferSizeCmd     $Tramp$TT$L$PI$$HCI_HostBufferSizeCmd
   10009631     0001d2ec     00014342   host_pxxx.a : l2cap_if.o (.text)
HCI_HostNumCompletedPktCmd  $Tramp$TT$L$PI$$HCI_HostNumCompletedPktCmd
   1000965d     0001d2f4     00014360   host_pxxx.a : l2cap_if.o (.text)
HCI_SendDataPkt           $Tramp$TT$L$PI$$HCI_SendDataPkt
   100094e9     0001d2fc     0001483c   host_pxxx.a : l2cap_util.o (.text)
HCI_bm_alloc              $Tramp$TT$L$PI$$HCI_bm_alloc
   100094a1     0001d304     00014cbe   host_pxxx.a : l2cap_util.o (.text)
                             00018324   cc2640_ctrl_pxxx_ext.a : ll_common_patch.o (.text)
LL_Encrypt                $Tramp$TT$L$PI$$LL_Encrypt
   100057d5     0001d30c     000152e8   host_pxxx.a : sm_mgr.o (.text)
HCI_LE_LtkReqReplyCmd     $Tramp$TT$L$PI$$HCI_LE_LtkReqReplyCmd
   10009bc5     0001d314     00015f00   host_pxxx.a : sm_rsppairing.o (.text)
HCI_LE_LtkReqNegReplyCmd  $Tramp$TT$L$PI$$HCI_LE_LtkReqNegReplyCmd
   10009be1     0001d31c     00015f1a   host_pxxx.a : sm_rsppairing.o (.text)
llMemCopySrc              $Tramp$TT$L$PI$$llMemCopySrc
   100089d9     0001d324     000168be   cc2640_ctrl_pxxx_ext.a : ble_patch.o (.text)
                             000168ca                          : ble_patch.o (.text)
                             000168d6                          : ble_patch.o (.text)
                             000168e2                          : ble_patch.o (.text)
                             00016906                          : ble_patch.o (.text)
                             00016948                          : ble_patch.o (.text)
                             00016954                          : ble_patch.o (.text)
                             000169aa                          : ble_patch.o (.text)
                             000169b6                          : ble_patch.o (.text)
                             000169c4                          : ble_patch.o (.text)
                             000169dc                          : ble_patch.o (.text)
                             00016a8e                          : ble_patch.o (.text)
                             00016a9c                          : ble_patch.o (.text)
LL_ENC_ReverseBytes       $Tramp$TT$L$PI$$LL_ENC_ReverseBytes
   1000b4ed     0001d32c     000169ce   cc2640_ctrl_pxxx_ext.a : ble_patch.o (.text)
                             000169e4                          : ble_patch.o (.text)
LL_ENC_GenDeviceSKD       $Tramp$TT$L$PI$$LL_ENC_GenDeviceSKD
   1000b541     0001d334     000169ec   cc2640_ctrl_pxxx_ext.a : ble_patch.o (.text)
LL_ENC_GenDeviceIV        $Tramp$TT$L$PI$$LL_ENC_GenDeviceIV
   1000b555     0001d33c     000169f4   cc2640_ctrl_pxxx_ext.a : ble_patch.o (.text)
llEnqueueCtrlPkt          $Tramp$TT$L$PI$$llEnqueueCtrlPkt
   100080bd     0001d344     00016a2e   cc2640_ctrl_pxxx_ext.a : ble_patch.o (.text)
                             00016ab6                          : ble_patch.o (.text)
                             00017cc4                          : ll_adv_end_causes_patch.o (.text)
                             00019850                          : ll_patch.o (.text)
                             0001a1e4                          : ll_patch.o (.text)
llSetupUnknownRsp         $Tramp$TT$L$PI$$llSetupUnknownRsp
   10008069     0001d34c     00016be0   cc2640_ctrl_pxxx_ext.a : ble_patch.o (.text)
                             0001aac6                          : ll_slave_end_causes_patch.o (.text)
LL_RX_bm_alloc            $Tramp$TT$L$PI$$LL_RX_bm_alloc
   1000556d     0001d354     00016c88   cc2640_ctrl_pxxx_ext.a : ble_patch.o (.text)
                             00016cda                          : ble_patch.o (.text)
                             00018418                          : ll_common_patch.o (.text)
llPatchCM0                $Tramp$TT$L$PI$$llPatchCM0
   1000adb1     0001d35c     00016d52   cc2640_ctrl_pxxx_ext.a : ble_patch.o (.text)
RFHAL_AllocRatChan        $Tramp$TT$L$PI$$RFHAL_AllocRatChan
   10018315     0001d364     00016d56   cc2640_ctrl_pxxx_ext.a : ble_patch.o (.text)
RFHAL_RegisterRatChanCallback  $Tramp$TT$L$PI$$RFHAL_RegisterRatChanCallback
   10018391     0001d36c     00016d62   cc2640_ctrl_pxxx_ext.a : ble_patch.o (.text)
LL_CtrlToHostFlowControl  $Tramp$TT$L$PI$$LL_CtrlToHostFlowControl
   100058d5     0001d374     00016eba   cc2640_ctrl_pxxx_ext.a : hci_data_patch.o (.text)
HCI_SendCommandCompleteEvent  $Tramp$TT$L$PI$$HCI_SendCommandCompleteEvent
   10008c81     0001d37c     000174ec   cc2640_ctrl_pxxx_ext.a : hci_event_patch.o (.text)
HCI_CommandCompleteEvent  $Tramp$TT$L$PI$$HCI_CommandCompleteEvent
   10008add     0001d384     00017582   cc2640_ctrl_pxxx_ext.a : hci_patch.o (.text)
                             0001763c                          : hci_patch.o (.text)
                             0001766e                          : hci_patch.o (.text)
                             000176d8                          : hci_patch.o (.text)
                             00017840                          : hci_patch.o (.text)
                             00017862                          : hci_patch.o (.text)
HCI_CommandStatusEvent    $Tramp$TT$L$PI$$HCI_CommandStatusEvent
   10008ba1     0001d38c     00017658   cc2640_ctrl_pxxx_ext.a : hci_patch.o (.text)
                             0001773c                          : hci_patch.o (.text)
LL_EXT_ResetSystem        $Tramp$TT$L$PI$$LL_EXT_ResetSystem
   100070d5     0001d394     00017754   cc2640_ctrl_pxxx_ext.a : hci_patch.o (.text)
LL_ReadLocalVersionInfo   $Tramp$TT$L$PI$$LL_ReadLocalVersionInfo
   1000589d     0001d39c     000177fc   cc2640_ctrl_pxxx_ext.a : hci_patch.o (.text)
llFreeTask                $Tramp$TT$L$PI$$llFreeTask
   1000abed     0001d3a4     000178e0   cc2640_ctrl_pxxx_ext.a : ll_adv_end_causes_patch.o (.text)
                             00017a00                          : ll_adv_end_causes_patch.o (.text)
                             0001818c                          : ll_common_patch.o (.text)
                             0001a116                          : ll_patch.o (.text)
LL_ENC_GeneratePseudoRandNum  $Tramp$TT$L$PI$$LL_ENC_GeneratePseudoRandNum
   1000b50d     0001d3ac     000178f4   cc2640_ctrl_pxxx_ext.a : ll_adv_end_causes_patch.o (.text)
                             00017990                          : ll_adv_end_causes_patch.o (.text)
llScheduler               $Tramp$TT$L$PI$$llScheduler
   1000a335     0001d3b4     0001791e   cc2640_ctrl_pxxx_ext.a : ll_adv_end_causes_patch.o (.text)
                             000179ca                          : ll_adv_end_causes_patch.o (.text)
                             00017cd2                          : ll_adv_end_causes_patch.o (.text)
                             0001a0de                          : ll_patch.o (.text)
                             0001a122                          : ll_patch.o (.text)
                             0001a7ee                          : ll_slave_end_causes_patch.o (.text)
llConvertLstoToEvent      $Tramp$TT$L$PI$$llConvertLstoToEvent
   10008721     0001d3bc     00017b14   cc2640_ctrl_pxxx_ext.a : ll_adv_end_causes_patch.o (.text)
                             0001a8e4                          : ll_slave_end_causes_patch.o (.text)
llConvertCtrlProcTimeoutToEvent  $Tramp$TT$L$PI$$llConvertCtrlProcTimeoutToEvent
   10008741     0001d3c4     00017b1e   cc2640_ctrl_pxxx_ext.a : ll_adv_end_causes_patch.o (.text)
                             0001a93e                          : ll_slave_end_causes_patch.o (.text)
llCalcScaFactor           $Tramp$TT$L$PI$$llCalcScaFactor
   1000d94d     0001d3cc     00017b38   cc2640_ctrl_pxxx_ext.a : ll_adv_end_causes_patch.o (.text)
llConnTerminate           $Tramp$TT$L$PI$$llConnTerminate
   10008631     0001d3d4     00017be6   cc2640_ctrl_pxxx_ext.a : ll_adv_end_causes_patch.o (.text)
                             0001a3f4                          : ll_patch.o (.text)
                             0001a782                          : ll_slave_end_causes_patch.o (.text)
                             0001aa6a                          : ll_slave_end_causes_patch.o (.text)
                             0001ab2e                          : ll_slave_end_causes_patch.o (.text)
RFHAL_InitDataQueue       $Tramp$TT$L$PI$$RFHAL_InitDataQueue
   100183b9     0001d3dc     00017bfa   cc2640_ctrl_pxxx_ext.a : ll_adv_end_causes_patch.o (.text)
                             00018138                          : ll_common_patch.o (.text)
                             00018168                          : ll_common_patch.o (.text)
llEventDelta              $Tramp$TT$L$PI$$llEventDelta
   10008719     0001d3e4     00017d84   cc2640_ctrl_pxxx_ext.a : ll_common_patch.o (.text)
                             000186fe                          : ll_common_patch.o (.text)
                             0001a8b2                          : ll_slave_end_causes_patch.o (.text)
                             0001a8fe                          : ll_slave_end_causes_patch.o (.text)
LL_TX_bm_alloc            $Tramp$TT$L$PI$$LL_TX_bm_alloc
   10005549     0001d3ec     00017f3e   cc2640_ctrl_pxxx_ext.a : ll_common_patch.o (.text)
                             00017fb4                          : ll_common_patch.o (.text)
                             00018036                          : ll_common_patch.o (.text)
                             0001875c                          : ll_common_patch.o (.text)
RFHAL_FreeNextTxDataEntry  $Tramp$TT$L$PI$$RFHAL_FreeNextTxDataEntry
   10018485     0001d3f4     0001809a   cc2640_ctrl_pxxx_ext.a : ll_common_patch.o (.text)
                             00018106                          : ll_common_patch.o (.text)
RFHAL_GetNextDataEntry    $Tramp$TT$L$PI$$RFHAL_GetNextDataEntry
   100184cd     0001d3fc     000180a0   cc2640_ctrl_pxxx_ext.a : ll_common_patch.o (.text)
                             0001810c                          : ll_common_patch.o (.text)
                             0001814c                          : ll_common_patch.o (.text)
                             0001b0f4                          : ll_isr.o (.text)
RFHAL_GetTempDataEntry    $Tramp$TT$L$PI$$RFHAL_GetTempDataEntry
   100184d1     0001d404     00018116   cc2640_ctrl_pxxx_ext.a : ll_common_patch.o (.text)
                             00018822                          : ll_common_patch.o (.text)
llReleaseConnId           $Tramp$TT$L$PI$$llReleaseConnId
   10008429     0001d40c     00018186   cc2640_ctrl_pxxx_ext.a : ll_common_patch.o (.text)
llTimeCompare             $Tramp$TT$L$PI$$llTimeCompare
   1000d8c9     0001d414     00018238   cc2640_ctrl_pxxx_ext.a : ll_common_patch.o (.text)
                             000184cc                          : ll_common_patch.o (.text)
HCI_HardwareErrorEvent    $Tramp$TT$L$PI$$HCI_HardwareErrorEvent
   10008bf5     0001d41c     00018348   cc2640_ctrl_pxxx_ext.a : ll_common_patch.o (.text)
                             00018454                          : ll_common_patch.o (.text)
                             000185b0                          : ll_common_patch.o (.text)
                             00018952                          : ll_common_patch.o (.text)
                             000189de                          : ll_common_patch.o (.text)
                             00019582                          : ll_patch.o (.text)
                             0001996c                          : ll_patch.o (.text)
llGetCurrentTask          $Tramp$TT$L$PI$$llGetCurrentTask
   1000ac3d     0001d424     000184d2   cc2640_ctrl_pxxx_ext.a : ll_common_patch.o (.text)
                             000194bc                          : ll_patch.o (.text)
                             0001a0fc                          : ll_patch.o (.text)
                             0001a3ce                          : ll_patch.o (.text)
                             0001a3d8                          : ll_patch.o (.text)
llTimeDelta               $Tramp$TT$L$PI$$llTimeDelta
   1000d8f5     0001d42c     000184e4   cc2640_ctrl_pxxx_ext.a : ll_common_patch.o (.text)
llSetupRejectInd          $Tramp$TT$L$PI$$llSetupRejectInd
   10007df5     0001d434     0001873e   cc2640_ctrl_pxxx_ext.a : ll_common_patch.o (.text)
                             0001ac80                          : ll_slave_end_causes_patch.o (.text)
LL_ENC_Init               $Tramp$TT$L$PI$$LL_ENC_Init
   1000b4c9     0001d43c     00018a8e   cc2640_ctrl_pxxx_ext.a : ll_enc_patch.o (.text)
                             00018afc                          : ll_enc_patch.o (.text)
                             00019616                          : ll_patch.o (.text)
                             0001ada4                          : ll_sleep.o (.text)
LL_ENC_LoadKey            $Tramp$TT$L$PI$$LL_ENC_LoadKey
   1000b58d     0001d444     00018a96   cc2640_ctrl_pxxx_ext.a : ll_enc_patch.o (.text)
                             00018b04                          : ll_enc_patch.o (.text)
LL_ENC_GenerateNonce      $Tramp$TT$L$PI$$LL_ENC_GenerateNonce
   1000b569     0001d44c     00018ab8   cc2640_ctrl_pxxx_ext.a : ll_enc_patch.o (.text)
                             00018b28                          : ll_enc_patch.o (.text)
LL_ENC_EncryptMsg         $Tramp$TT$L$PI$$LL_ENC_EncryptMsg
   1000b721     0001d454     00018ac4   cc2640_ctrl_pxxx_ext.a : ll_enc_patch.o (.text)
LL_ENC_DecryptMsg         $Tramp$TT$L$PI$$LL_ENC_DecryptMsg
   1000b851     0001d45c     00018b38   cc2640_ctrl_pxxx_ext.a : ll_enc_patch.o (.text)
LL_ENC_GenerateTrueRandNum  $Tramp$TT$L$PI$$LL_ENC_GenerateTrueRandNum
   1000b51d     0001d464     00019492   cc2640_ctrl_pxxx_ext.a : ll_patch.o (.text)
WL_Init                   $Tramp$TT$L$PI$$WL_Init
   1000d189     0001d46c     00019612   cc2640_ctrl_pxxx_ext.a : ll_patch.o (.text)
LL_ClearWhiteList         $Tramp$TT$L$PI$$LL_ClearWhiteList
   10005719     0001d474     0001961a   cc2640_ctrl_pxxx_ext.a : ll_patch.o (.text)
llReleaseAllConnId        $Tramp$TT$L$PI$$llReleaseAllConnId
   10008461     0001d47c     0001967e   cc2640_ctrl_pxxx_ext.a : ll_patch.o (.text)
LL_ConnActive             $Tramp$TT$L$PI$$LL_ConnActive
   1000678d     0001d484     00019758   cc2640_ctrl_pxxx_ext.a : ll_patch.o (.text)
                             000197a8                          : ll_patch.o (.text)
                             000197e6                          : ll_patch.o (.text)
                             00019822                          : ll_patch.o (.text)
                             00019974                          : ll_patch.o (.text)
                             0001a19e                          : ll_patch.o (.text)
                             0001a312                          : ll_patch.o (.text)
                             0001a350                          : ll_patch.o (.text)
                             0001a3c6                          : ll_patch.o (.text)
HCI_DataBufferOverflowEvent  $Tramp$TT$L$PI$$HCI_DataBufferOverflowEvent
   10008a2d     0001d48c     00019994   cc2640_ctrl_pxxx_ext.a : ll_patch.o (.text)
LL_DirectTestEndDoneCback  $Tramp$TT$L$PI$$LL_DirectTestEndDoneCback
   10009471     0001d494     00019ebe   cc2640_ctrl_pxxx_ext.a : ll_patch.o (.text)
                             00019ef4                          : ll_patch.o (.text)
llGetActiveTasks          $Tramp$TT$L$PI$$llGetActiveTasks
   1000aca9     0001d49c     0001a06e   cc2640_ctrl_pxxx_ext.a : ll_patch.o (.text)
llSetupAdv                $Tramp$TT$L$PI$$llSetupAdv
   100073e5     0001d4a4     0001a09e   cc2640_ctrl_pxxx_ext.a : ll_patch.o (.text)
llGetNumTasks             $Tramp$TT$L$PI$$llGetNumTasks
   1000ace1     0001d4ac     0001a0f4   cc2640_ctrl_pxxx_ext.a : ll_patch.o (.text)
llCheckForLstoDuringSL    $Tramp$TT$L$PI$$llCheckForLstoDuringSL
   1000c1b5     0001d4b4     0001a852   cc2640_ctrl_pxxx_ext.a : ll_slave_end_causes_patch.o (.text)
llEventInRange            $Tramp$TT$L$PI$$llEventInRange
   100086f1     0001d4bc     0001a874   cc2640_ctrl_pxxx_ext.a : ll_slave_end_causes_patch.o (.text)
                             0001a894                          : ll_slave_end_causes_patch.o (.text)
LL_EncLtkReqCback         $Tramp$TT$L$PI$$LL_EncLtkReqCback
   1000925d     0001d4c4     0001ab68   cc2640_ctrl_pxxx_ext.a : ll_slave_end_causes_patch.o (.text)
llSetupEncRsp             $Tramp$TT$L$PI$$llSetupEncRsp
   10007b95     0001d4cc     0001ab70   cc2640_ctrl_pxxx_ext.a : ll_slave_end_causes_patch.o (.text)
LL_ENC_AES128_Encrypt     $Tramp$TT$L$PI$$LL_ENC_AES128_Encrypt
   1000b5f5     0001d4d4     0001abce   cc2640_ctrl_pxxx_ext.a : ll_slave_end_causes_patch.o (.text)
LL_EncKeyRefreshCback     $Tramp$TT$L$PI$$LL_EncKeyRefreshCback
   100093dd     0001d4dc     0001ac04   cc2640_ctrl_pxxx_ext.a : ll_slave_end_causes_patch.o (.text)
LL_EncChangeCback         $Tramp$TT$L$PI$$LL_EncChangeCback
   1000933d     0001d4e4     0001ac10   cc2640_ctrl_pxxx_ext.a : ll_slave_end_causes_patch.o (.text)
llSetupStartEncRsp        $Tramp$TT$L$PI$$llSetupStartEncRsp
   10007ca9     0001d4ec     0001ac22   cc2640_ctrl_pxxx_ext.a : ll_slave_end_causes_patch.o (.text)
llSetupPauseEncRsp        $Tramp$TT$L$PI$$llSetupPauseEncRsp
   10007d55     0001d4f4     0001ac3c   cc2640_ctrl_pxxx_ext.a : ll_slave_end_causes_patch.o (.text)
LL_ReadRemoteVersionInfoCback  $Tramp$TT$L$PI$$LL_ReadRemoteVersionInfoCback
   100091e1     0001d4fc     0001acba   cc2640_ctrl_pxxx_ext.a : ll_slave_end_causes_patch.o (.text)
                             0001acce                          : ll_slave_end_causes_patch.o (.text)
llSetupVersionIndReq      $Tramp$TT$L$PI$$llSetupVersionIndReq
   10007f29     0001d504     0001acda   cc2640_ctrl_pxxx_ext.a : ll_slave_end_causes_patch.o (.text)
llMoveTempTxDataEntries   $Tramp$TT$L$PI$$llMoveTempTxDataEntries
   1000afa1     0001d50c     0001ad8a   cc2640_ctrl_pxxx_ext.a : ll_slave_end_causes_patch.o (.text)
WL_ClearEntry             $Tramp$TT$L$PI$$WL_ClearEntry
   1000d1f5     0001d514     0001ade6   cc2640_ctrl_pxxx_ext.a : ll_wl_patch.o (.text)
RFHAL_NextDataEntryDone   $Tramp$TT$L$PI$$RFHAL_NextDataEntryDone
   100184d5     0001d51c     0001b1e6   cc2640_ctrl_pxxx_ext.a : ll_isr.o (.text)
LL_PseudoRand             $Tramp$TT$L$PI$$LL_PseudoRand
   10005801     0001d524     0001bba6   onboard.obj (.text)
HCI_EXT_NumComplPktsLimitCmd  $Tramp$TT$L$PI$$HCI_EXT_NumComplPktsLimitCmd
   1000a1b5     0001d52c     0001cbfa   ble_dispatch.obj (.text)
HCI_EXT_BuildRevisionCmd  $Tramp$TT$L$PI$$HCI_EXT_BuildRevisionCmd
   1000a109     0001d534     0001cc0e   ble_dispatch.obj (.text)
HCI_EXT_SetSlaveLatencyOverrideCmd  $Tramp$TT$L$PI$$HCI_EXT_SetSlaveLatencyOverrideCmd
   10009e6d     0001d53c     0001cc14   ble_dispatch.obj (.text)
HCI_EXT_AdvEventNoticeCmd  $Tramp$TT$L$PI$$HCI_EXT_AdvEventNoticeCmd
   1000a0f1     0001d544     0001cc28   ble_dispatch.obj (.text)
HCI_EXT_PERbyChanCmd      $Tramp$TT$L$PI$$HCI_EXT_PERbyChanCmd
   1000a075     0001d54c     0001cc30   ble_dispatch.obj (.text)
HCI_EXT_PacketErrorRateCmd  $Tramp$TT$L$PI$$HCI_EXT_PacketErrorRateCmd
   1000a031     0001d554     0001cc38   ble_dispatch.obj (.text)
HCI_EXT_DisconnectImmedCmd  $Tramp$TT$L$PI$$HCI_EXT_DisconnectImmedCmd
   1000a011     0001d55c     0001cc3e   ble_dispatch.obj (.text)
HCI_EXT_SetMaxDtmTxPowerCmd  $Tramp$TT$L$PI$$HCI_EXT_SetMaxDtmTxPowerCmd
   10009fd1     0001d564     0001cc44   ble_dispatch.obj (.text)
HCI_EXT_EnablePTMCmd      $Tramp$TT$L$PI$$HCI_EXT_EnablePTMCmd
   10009f69     0001d56c     0001cc48   ble_dispatch.obj (.text)
HCI_EXT_SetSCACmd         $Tramp$TT$L$PI$$HCI_EXT_SetSCACmd
   10009f49     0001d574     0001cc4e   ble_dispatch.obj (.text)
HCI_EXT_SetBDADDRCmd      $Tramp$TT$L$PI$$HCI_EXT_SetBDADDRCmd
   10009f0d     0001d57c     0001cc54   ble_dispatch.obj (.text)
HCI_EXT_EndModemTestCmd   $Tramp$TT$L$PI$$HCI_EXT_EndModemTestCmd
   10009eed     0001d584     0001cc58   ble_dispatch.obj (.text)
HCI_EXT_ModemTestRxCmd    $Tramp$TT$L$PI$$HCI_EXT_ModemTestRxCmd
   10009ecd     0001d58c     0001cc5e   ble_dispatch.obj (.text)
HCI_EXT_ModemHopTestTxCmd  $Tramp$TT$L$PI$$HCI_EXT_ModemHopTestTxCmd
   10009ead     0001d594     0001cc62   ble_dispatch.obj (.text)
HCI_EXT_ModemTestTxCmd    $Tramp$TT$L$PI$$HCI_EXT_ModemTestTxCmd
   10009e8d     0001d59c     0001cc6a   ble_dispatch.obj (.text)
HCI_EXT_SetFastTxResponseTimeCmd  $Tramp$TT$L$PI$$HCI_EXT_SetFastTxResponseTimeCmd
   10009e4d     0001d5a4     0001cc70   ble_dispatch.obj (.text)
HCI_EXT_SetLocalSupportedFeaturesCmd  $Tramp$TT$L$PI$$HCI_EXT_SetLocalSupportedFeaturesCmd
   10009e2d     0001d5ac     0001cc76   ble_dispatch.obj (.text)
HCI_EXT_DecryptCmd        $Tramp$TT$L$PI$$HCI_EXT_DecryptCmd
   10009dd1     0001d5b4     0001cc7e   ble_dispatch.obj (.text)
HCI_EXT_OnePktPerEvtCmd   $Tramp$TT$L$PI$$HCI_EXT_OnePktPerEvtCmd
   10009d45     0001d5bc     0001cc84   ble_dispatch.obj (.text)
HCI_EXT_SetTxPowerCmd     $Tramp$TT$L$PI$$HCI_EXT_SetTxPowerCmd
   10009d09     0001d5c4     0001cc8a   ble_dispatch.obj (.text)
HCI_LE_TestEndCmd         $Tramp$TT$L$PI$$HCI_LE_TestEndCmd
   10009c8d     0001d5cc     0001ccaa   ble_dispatch.obj (.text)
HCI_LE_ReadSupportedStatesCmd  $Tramp$TT$L$PI$$HCI_LE_ReadSupportedStatesCmd
   10009c15     0001d5d4     0001ccc0   ble_dispatch.obj (.text)
HCI_LE_EncryptCmd         $Tramp$TT$L$PI$$HCI_LE_EncryptCmd
   10009af5     0001d5dc     0001ccc8   ble_dispatch.obj (.text)
HCI_LE_ReadChannelMapCmd  $Tramp$TT$L$PI$$HCI_LE_ReadChannelMapCmd
   10009aa1     0001d5e4     0001ccd4   ble_dispatch.obj (.text)
HCI_LE_RemoveWhiteListCmd  $Tramp$TT$L$PI$$HCI_LE_RemoveWhiteListCmd
   10009a31     0001d5ec     0001ccdc   ble_dispatch.obj (.text)
HCI_LE_AddWhiteListCmd    $Tramp$TT$L$PI$$HCI_LE_AddWhiteListCmd
   10009a15     0001d5f4     0001cce4   ble_dispatch.obj (.text)
HCI_LE_ClearWhiteListCmd  $Tramp$TT$L$PI$$HCI_LE_ClearWhiteListCmd
   100099f9     0001d5fc     0001cce8   ble_dispatch.obj (.text)
HCI_LE_ReadWhiteListSizeCmd  $Tramp$TT$L$PI$$HCI_LE_ReadWhiteListSizeCmd
   100099c9     0001d604     0001ccec   ble_dispatch.obj (.text)
HCI_LE_ReadAdvChanTxPowerCmd  $Tramp$TT$L$PI$$HCI_LE_ReadAdvChanTxPowerCmd
   100098f5     0001d60c     0001ccf0   ble_dispatch.obj (.text)
HCI_LE_ReadLocalSupportedFeaturesCmd  $Tramp$TT$L$PI$$HCI_LE_ReadLocalSupportedFeaturesCmd
   10009829     0001d614     0001ccf4   ble_dispatch.obj (.text)
HCI_ReadLocalSupportedFeaturesCmd  $Tramp$TT$L$PI$$HCI_ReadLocalSupportedFeaturesCmd
   1000973d     0001d61c     0001cd08   ble_dispatch.obj (.text)
HCI_ReadTransmitPowerLevelCmd  $Tramp$TT$L$PI$$HCI_ReadTransmitPowerLevelCmd
   100095d1     0001d624     0001cd1e   ble_dispatch.obj (.text)
HCI_SetEventMaskCmd       $Tramp$TT$L$PI$$HCI_SetEventMaskCmd
   10009571     0001d62c     0001cd28   ble_dispatch.obj (.text)
HCI_ReadRemoteVersionInfoCmd  $Tramp$TT$L$PI$$HCI_ReadRemoteVersionInfoCmd
   10009541     0001d634     0001cd2e   ble_dispatch.obj (.text)

[119 trampolines]
[208 trampoline calls]


GLOBAL SYMBOLS: SORTED ALPHABETICALLY BY Name 

address   name                                  
-------   ----                                  
10014c00  A1_rw                                 
10005000  A1_rw_1                               
10019ffe  A2_rw                                 
1000dffe  A2_rw_1                               
10019ffc  A3_rw                                 
1000dffc  A3_rw_1                               
20004f2c  A4_rw                                 
200048e8  A4_rw_1                               
20004f7c  ACCX                                  
20004f80  ACCY                                  
20004f84  ACCZ                                  
10015229  ATOMICPATTERN                         
00010293  ATT_BuildErrorRsp                     
000102c3  ATT_BuildExchangeMTUReq               
000102cf  ATT_BuildExchangeMTURsp               
000105f9  ATT_BuildExecuteWriteReq              
0001035d  ATT_BuildFindByTypeValueReq           
000103b9  ATT_BuildFindByTypeValueRsp           
000102f5  ATT_BuildFindInfoReq                  
00010301  ATT_BuildFindInfoRsp                  
0001061d  ATT_BuildHandleValueInd               
0001057f  ATT_BuildPrepareWriteReq              
000105a9  ATT_BuildPrepareWriteRsp              
000104c3  ATT_BuildReadBlobReq                  
00010501  ATT_BuildReadBlobRsp                  
00010541  ATT_BuildReadByGrpTypeRsp             
000103db  ATT_BuildReadByTypeReq                
00010447  ATT_BuildReadByTypeRsp                
00010513  ATT_BuildReadMultiReq                 
0001053b  ATT_BuildReadMultiRsp                 
0001046b  ATT_BuildReadReq                      
00010487  ATT_BuildReadRsp                      
000104b7  ATT_BuildWriteReq                     
000106ed  ATT_CompareUUID                       
0001073d  ATT_ConvertUUIDto128                  
00010765  ATT_ConvertUUIDto16                   
00010053  ATT_ErrorRsp                          
00010065  ATT_ExchangeMTURsp                    
00010197  ATT_ExecuteWriteRsp                   
000100ad  ATT_FindByTypeValueRsp                
0001007d  ATT_FindInfoRsp                       
000107cd  ATT_GetMTU                            
000107ef  ATT_GetParamValue                     
000101b9  ATT_HandleValueInd                    
000101a3  ATT_HandleValueNoti                   
000102a5  ATT_ParseErrorRsp                     
000102c5  ATT_ParseExchangeMTUReq               
000102df  ATT_ParseExchangeMTURsp               
00010601  ATT_ParseExecuteWriteReq              
00010613  ATT_ParseExecuteWriteRsp              
00010377  ATT_ParseFindByTypeValueReq           
000103c1  ATT_ParseFindByTypeValueRsp           
000102f7  ATT_ParseFindInfoReq                  
00010319  ATT_ParseFindInfoRsp                  
0001065d  ATT_ParseHandleValueCfm               
00010631  ATT_ParseHandleValueInd               
00010239  ATT_ParsePacket                       
00010581  ATT_ParsePrepareWriteReq              
000105c7  ATT_ParsePrepareWriteRsp              
000104dd  ATT_ParseReadBlobReq                  
00010505  ATT_ParseReadBlobRsp                  
00010553  ATT_ParseReadByGrpTypeRsp             
0001040b  ATT_ParseReadByTypeReq                
00010449  ATT_ParseReadByTypeRsp                
0001051b  ATT_ParseReadMultiReq                 
0001053f  ATT_ParseReadMultiRsp                 
0001046d  ATT_ParseReadReq                      
0001048b  ATT_ParseReadRsp                      
0001048d  ATT_ParseWriteReq                     
000104b9  ATT_ParseWriteRsp                     
0001017d  ATT_PrepareWriteRsp                   
00010115  ATT_ReadBlobRsp                       
0001014f  ATT_ReadByGrpTypeRsp                  
000100cd  ATT_ReadByTypeRsp                     
00010131  ATT_ReadMultiRsp                      
000100f9  ATT_ReadRsp                           
0001004d  ATT_RegisterServer                    
000107ed  ATT_SetParamValue                     
000107a3  ATT_UpdateMTU                         
00010171  ATT_WriteRsp                          
10016c29  AddRoundKeySubBytes_Sw                
10018a19  AesCcm_authEncrypt_Sw                 
10018a35  AesCcm_decryptAuth_Sw                 
10018b09  AesCcm_getNumBlocks_Sw                
10018ac5  Aes_decrypt_Sw                        
10018a99  Aes_encrypt_Sw                        
20004f2c  COMMON_RAM_BASE_ADDR                  
10014c01  COMMON_ROM_BASE_ADDR                  
10015a6d  COPY                                  
0001b9c3  CommonROM_Init                        
10017959  ECC_allocWorkzone                     
10017dbd  ECC_keyGen                            
10017961  ECC_setWin                            
10017ded  ECDH_commonKey                        
10017969  ECDSA_sign                            
10017b01  ECDSA_verif                           
10015a11  EXPORTOPERAND                         
20004f78  EXPW                                  
20004f6c  EXPX                                  
20004f70  EXPY                                  
20004f74  EXPZ                                  
10016f58  FFMult2                               
10017058  FFMult3                               
10016d05  FFMult_Sw                             
10018d6c  Fill1                                 
1000d9ec  Fill1_1                               
00010db9  GAP_Authenticate                      
00010ef3  GAP_Bond                              
0001089b  GAP_ConfigDeviceAddr                  
0001ce55  GAP_DeviceInit                        
000116af  GAP_EndDiscoverable                   
000117a5  GAP_GetAdvToken                       
00010895  GAP_GetIRK                            
0001081f  GAP_GetParamValue                     
00011cef  GAP_Init                              
000115b5  GAP_MakeDiscoverable                  
00011dcd  GAP_NumActiveConnections              
00010831  GAP_ParamsInit                        
00010ea7  GAP_PasscodeUpdate                    
00010e73  GAP_PasskeyUpdate                     
00011c13  GAP_PeriConnRegister                  
00011819  GAP_PeriDevMgrInit                    
00010873  GAP_PrivacyInit                       
00011d05  GAP_ProcessEvent                      
00011fad  GAP_RegisterBondMgrCBs                
00011ce9  GAP_RegisterForMsgs                   
000117bb  GAP_RemoveAdvToken                    
00010b4d  GAP_ResolvePrivateAddr                
00010859  GAP_SecParamsInit                     
00011bd9  GAP_SendSlaveSecurityRequest          
000116fb  GAP_SetAdvToken                       
00010805  GAP_SetParamValue                     
00010d71  GAP_Signable                          
00010e55  GAP_TerminateAuth                     
00010bfd  GAP_TerminateLinkReq                  
00011805  GAP_UpdateAdvTokens                   
00011647  GAP_UpdateAdvertisingData             
00010c77  GAP_UpdateLinkParamReq                
00010cdf  GAP_UpdateLinkParamReqReply           
00013497  GATTServApp_AddService                
000134ad  GATTServApp_DelService                
0001333b  GATTServApp_DeregisterService         
00014163  GATTServApp_GetParamValue             
000133dd  GATTServApp_GetParameter              
00013259  GATTServApp_Init                      
0001d273  GATTServApp_InitCharCfg               
000132a7  GATTServApp_ProcessEvent              
00013ee1  GATTServApp_ReadAttr                  
0001d263  GATTServApp_ReadCharCfg               
00013251  GATTServApp_RegisterForMsg            
000132e5  GATTServApp_RegisterService           
000141d9  GATTServApp_SendCCCUpdatedEvent       
00014161  GATTServApp_SetParamValue             
0001337f  GATTServApp_SetParameter              
20004438  GATTServApp_TaskID                    
00014167  GATTServApp_UpdateCharCfg             
000140d9  GATTServApp_WriteAttr                 
00012e37  GATT_AppCompletedMsg                  
00012405  GATT_DeregisterService                
000125a7  GATT_FindHandle                       
00012549  GATT_FindHandleUUID                   
000125f3  GATT_FindNextAttr                     
00013111  GATT_FindUUIDRec                      
00012da5  GATT_GetNextHandle                    
00012747  GATT_Indication                       
00012e5f  GATT_Init                             
00012301  GATT_InitServer                       
000127b3  GATT_Notification                     
00012fc9  GATT_NotifyEvent                      
00012e7d  GATT_ProcessEvent                     
00012e25  GATT_RegisterForMsgs                  
00012445  GATT_RegisterForReq                   
00012369  GATT_RegisterService                  
00012693  GATT_SendRsp                          
000124d7  GATT_ServiceChangedInd                
00012683  GATT_ServiceEncKeySize                
00012677  GATT_ServiceNumAttrs                  
00012e2b  GATT_SetHostToAppFlowCtrl             
00012e15  GATT_SetNextHandle                    
00012fdd  GATT_UpdateMTU                        
0001244d  GATT_VerifyReadPermissions            
00012483  GATT_VerifyWritePermissions           
00013085  GATT_bm_alloc                         
000130fd  GATT_bm_free                          
10015141  GETBIT                                
10015155  GETDIGIT                              
100151a5  GETDIGITL2R                           
00012091  GGS_AddService                        
000120a9  GGS_DelService                        
0001208d  GGS_GetParamValue                     
00012055  GGS_GetParameter                      
000120bd  GGS_RegisterAppCBs                    
0001208b  GGS_SetParamValue                     
00011fd5  GGS_SetParameter                      
10008add  HCI_CommandCompleteEvent              
10008ba1  HCI_CommandStatusEvent                
10008a2d  HCI_DataBufferOverflowEvent           
10009525  HCI_DisconnectCmd                     
1000a0f1  HCI_EXT_AdvEventNoticeCmd             
1000a109  HCI_EXT_BuildRevisionCmd              
10009d79  HCI_EXT_ClkDivOnHaltCmd               
000177b5  HCI_EXT_ConnEventNoticeCmd            
10009dad  HCI_EXT_DeclareNvUsageCmd             
10009dd1  HCI_EXT_DecryptCmd                    
0001776b  HCI_EXT_DelaySleepCmd                 
1000a011  HCI_EXT_DisconnectImmedCmd            
10009f69  HCI_EXT_EnablePTMCmd                  
10009eed  HCI_EXT_EndModemTestCmd               
1000a095  HCI_EXT_ExtendRfRangeCmd              
0001758b  HCI_EXT_GetConnInfoCmd                
1000a0d1  HCI_EXT_HaltDuringRfCmd               
10009ff1  HCI_EXT_MapPmIoPortCmd                
10009ead  HCI_EXT_ModemHopTestTxCmd             
10009ecd  HCI_EXT_ModemTestRxCmd                
10009e8d  HCI_EXT_ModemTestTxCmd                
1000a1b5  HCI_EXT_NumComplPktsLimitCmd          
10009d45  HCI_EXT_OnePktPerEvtCmd               
1000a195  HCI_EXT_OverlappedProcessingCmd       
1000a075  HCI_EXT_PERbyChanCmd                  
1000a031  HCI_EXT_PacketErrorRateCmd            
00017745  HCI_EXT_ResetSystemCmd                
10009fb1  HCI_EXT_SaveFreqTuneCmd               
10009f0d  HCI_EXT_SetBDADDRCmd                  
10009e4d  HCI_EXT_SetFastTxResponseTimeCmd      
10009f81  HCI_EXT_SetFreqTuneCmd                
10009e2d  HCI_EXT_SetLocalSupportedFeaturesCmd  
0001778d  HCI_EXT_SetMaxDataLenCmd              
10009fd1  HCI_EXT_SetMaxDtmTxPowerCmd           
10009cd5  HCI_EXT_SetRxGainCmd                  
10009f49  HCI_EXT_SetSCACmd                     
10009e6d  HCI_EXT_SetSlaveLatencyOverrideCmd    
10009d09  HCI_EXT_SetTxPowerCmd                 
0001b2f7  HCI_ExtTaskRegister                   
0001b2e5  HCI_GAPTaskRegister                   
10008bf5  HCI_HardwareErrorEvent                
10009631  HCI_HostBufferSizeCmd                 
1000965d  HCI_HostNumCompletedPktCmd            
0001b271  HCI_Init                              
0001b2eb  HCI_L2CAPTaskRegister                 
10009a15  HCI_LE_AddWhiteListCmd                
100099f9  HCI_LE_ClearWhiteListCmd              
00017735  HCI_LE_ConnUpdateCmd                  
1000999d  HCI_LE_CreateConnCancelCmd            
1000995d  HCI_LE_CreateConnCmd                  
10009af5  HCI_LE_EncryptCmd                     
10009be1  HCI_LE_LtkReqNegReplyCmd              
10009bc5  HCI_LE_LtkReqReplyCmd                 
10009b51  HCI_LE_RandCmd                        
100098f5  HCI_LE_ReadAdvChanTxPowerCmd          
00017619  HCI_LE_ReadBufSizeCmd                 
10009aa1  HCI_LE_ReadChannelMapCmd              
10009829  HCI_LE_ReadLocalSupportedFeaturesCmd  
000176b9  HCI_LE_ReadMaxDataLenCmd              
0001764d  HCI_LE_ReadRemoteUsedFeaturesCmd      
0001768d  HCI_LE_ReadSuggestedDefaultDataLenCmd 
10009c15  HCI_LE_ReadSupportedStatesCmd         
100099c9  HCI_LE_ReadWhiteListSizeCmd           
000176fb  HCI_LE_ReceiverTestCmd                
00017649  HCI_LE_RemoteConnParamReqNegReplyCmd  
00017645  HCI_LE_RemoteConnParamReqReplyCmd     
10009a31  HCI_LE_RemoveWhiteListCmd             
100098a1  HCI_LE_SetAdvDataCmd                  
100098d9  HCI_LE_SetAdvEnableCmd                
1000986d  HCI_LE_SetAdvParamCmd                 
00017677  HCI_LE_SetDataLenCmd                  
000177b9  HCI_LE_SetEventMaskCmd                
10009a85  HCI_LE_SetHostChanClassificationCmd   
10009849  HCI_LE_SetRandomAddressCmd            
10009941  HCI_LE_SetScanEnableCmd               
10009915  HCI_LE_SetScanParamCmd                
100098bd  HCI_LE_SetScanRspDataCmd              
10009ba9  HCI_LE_StartEncyptCmd                 
10009c8d  HCI_LE_TestEndCmd                     
000176e9  HCI_LE_TransmitterTestCmd             
000176a9  HCI_LE_WriteSuggestedDefaultDataLenCmd
00017077  HCI_NumOfCompletedPacketsEvent        
0001b2a3  HCI_ProcessEvent                      
10009765  HCI_ReadBDADDRCmd                     
00017577  HCI_ReadLocalSupportedCommandsCmd     
1000973d  HCI_ReadLocalSupportedFeaturesCmd     
000177f1  HCI_ReadLocalVersionInfoCmd           
10009541  HCI_ReadRemoteVersionInfoCmd          
0001784b  HCI_ReadRssiCmd                       
100095d1  HCI_ReadTransmitPowerLevelCmd         
00017555  HCI_ResetCmd                          
1000d7cd  HCI_ReverseBytes                      
0001b2f1  HCI_SMPTaskRegister                   
10008c81  HCI_SendCommandCompleteEvent          
10008c59  HCI_SendCommandStatusEvent            
10008d31  HCI_SendControllerToHostEvent         
100094e9  HCI_SendDataPkt                       
100095f5  HCI_SetControllerToHostFlowCtrlCmd    
10009571  HCI_SetEventMaskCmd                   
00017717  HCI_SetEventMaskPage2Cmd              
0001b2df  HCI_TestAppTaskRegister               
00017519  HCI_ValidConnTimeParams               
0001749d  HCI_VendorSpecifcCommandCompleteEvent 
100094a1  HCI_bm_alloc                          
0001ba61  HalTRNG_GetTRNG                       
0001ba45  HalTRNG_InitTRNG                      
2000452c  ICall_dispatcher                      
20004530  ICall_enterCriticalSection            
20004534  ICall_leaveCriticalSection            
10015a35  IMPORTDATA                            
100159a9  IMPORTLENGTH                          
100159ad  IMPORTMODULUS                         
100159d1  IMPORTOPERAND                         
1001568d  INVERT                                
10016da1  InvAddRoundKey_Sw                     
10016ed5  InvMixColumns_Sw                      
10016dc9  InvRoundKey_Sw                        
10017264  InvSbox                               
10016ea1  InvShiftRows_Sw                       
10016e8d  InvSubBytes_Sw                        
100154f5  JACADD                                
000148c9  L2CAP_BuildCmdReject                  
000149e1  L2CAP_BuildInfoRsp                    
000149ad  L2CAP_BuildParamUpdateRsp             
000142a9  L2CAP_CmdReject                       
000142cf  L2CAP_ConnParamUpdateReq              
00014305  L2CAP_ConnParamUpdateRsp              
00014373  L2CAP_GetMTU                          
00014cd5  L2CAP_GetParamValue                   
00014351  L2CAP_HostNumCompletedPkts            
000142b7  L2CAP_InfoReq                         
0001439d  L2CAP_Init                            
000149c9  L2CAP_ParseInfoReq                    
00014973  L2CAP_ParseParamUpdateReq             
000143ff  L2CAP_ProcessEvent                    
0001421d  L2CAP_RegisterApp                     
0001450d  L2CAP_RegisterFlowCtrlTask            
00014247  L2CAP_SendData                        
00014367  L2CAP_SetBufSize                      
00014317  L2CAP_SetControllerToHostFlowCtrl     
00014cd3  L2CAP_SetParamValue                   
00014399  L2CAP_SetUserConfig                   
00014cb9  L2CAP_bm_alloc                        
20004fe8  LEN                                   
10005739  LL_AddWhiteListDevice                 
10008d81  LL_AdvReportCback                     
00017159  LL_AuthPayloadTimeoutExpiredCback     
10005719  LL_ClearWhiteList                     
1000678d  LL_ConnActive                         
00016f85  LL_ConnParamUpdateCback               
10008ead  LL_ConnectionCompleteCback            
100058d5  LL_CtrlToHostFlowControl              
000171cf  LL_DataLengthChangeEventCback         
00019e89  LL_DirectTestEnd                      
10009471  LL_DirectTestEndDoneCback             
00019d6d  LL_DirectTestRxTest                   
00019bdb  LL_DirectTestTxTest                   
10005a39  LL_Disconnect                         
10009005  LL_DisconnectCback                    
0001aec1  LL_DoorbellErrorCback                 
1000b639  LL_ENC_AES128_Decrypt                 
1000b5f5  LL_ENC_AES128_Encrypt                 
00018ae7  LL_ENC_Decrypt                        
1000b851  LL_ENC_DecryptMsg                     
00018a79  LL_ENC_Encrypt                        
1000b721  LL_ENC_EncryptMsg                     
1000b555  LL_ENC_GenDeviceIV                    
1000b541  LL_ENC_GenDeviceSKD                   
1000b569  LL_ENC_GenerateNonce                  
1000b50d  LL_ENC_GeneratePseudoRandNum          
1000b51d  LL_ENC_GenerateTrueRandNum            
1000b4c9  LL_ENC_Init                           
1000b58d  LL_ENC_LoadKey                        
1000b4ed  LL_ENC_ReverseBytes                   
10007025  LL_EXT_AdvEventNotice                 
0001a39b  LL_EXT_BuildRevision                  
10006b7d  LL_EXT_ClkDivOnHalt                   
0001a349  LL_EXT_ConnEventNotice                
10006b81  LL_EXT_DeclareNvUsage                 
10006b85  LL_EXT_Decrypt                        
100070a1  LL_EXT_DelaySleep                     
0001a3c3  LL_EXT_DisconnectImmed                
00019bb5  LL_EXT_EndModemTest                   
1000701d  LL_EXT_ExtendRfRange                  
1000a2ad  LL_EXT_ExtendRfRangeCback             
000196f1  LL_EXT_GetConnInfo                    
10007021  LL_EXT_HaltDuringRf                   
10006f49  LL_EXT_MapPmIoPort                    
000199f9  LL_EXT_ModemHopTestTx                 
00019b1d  LL_EXT_ModemTestRx                    
00019a99  LL_EXT_ModemTestTx                    
0001a379  LL_EXT_NumComplPktsLimit              
10006b59  LL_EXT_OnePacketPerEvent              
10007109  LL_EXT_OverlappedProcessing           
10006fed  LL_EXT_PERbyChan                      
10006f99  LL_EXT_PacketErrorRate                
1000a259  LL_EXT_PacketErrorRateCback           
100070d5  LL_EXT_ResetSystem                    
10006efd  LL_EXT_SaveFreqTune                   
10006e01  LL_EXT_SetBDADDR                      
10006bc5  LL_EXT_SetFastTxResponseTime          
10006ef9  LL_EXT_SetFreqTune                    
0001986f  LL_EXT_SetLocalSupportedFeatures      
0001a2a1  LL_EXT_SetMaxDataLen                  
000198dd  LL_EXT_SetMaxDtmTxPower               
10006ad9  LL_EXT_SetRxGain                      
1000a201  LL_EXT_SetRxGainCback                 
10006e85  LL_EXT_SetSCA                         
10006bdd  LL_EXT_SetSlaveLatencyOverride        
000198ad  LL_EXT_SetTxPower                     
1000a211  LL_EXT_SetTxPowerCback                
1000933d  LL_EncChangeCback                     
100093dd  LL_EncKeyRefreshCback                 
000197e3  LL_EncLtkNegReply                     
0001979d  LL_EncLtkReply                        
1000925d  LL_EncLtkReqCback                     
100057d5  LL_Encrypt                            
00017285  LL_EnhancedConnectionCompleteCback    
0001a159  LL_GetNumActiveConns                  
0001924d  LL_Init                               
0001aed1  LL_LastCmdDoneCback                   
100057b9  LL_NumEmptyWlEntries                  
0001ad95  LL_PM_Enter_AES                       
0001adab  LL_PM_Exit_AES                        
0001ad91  LL_PM_GetRfCoreState                  
0001add5  LL_PM_PowerOffRfCore                  
000194b3  LL_ProcessEvent                       
10005801  LL_PseudoRand                         
1000556d  LL_RX_bm_alloc                        
100057f5  LL_Rand                               
1000a1d5  LL_RandCback                          
10006105  LL_ReadAdvChanTxPower                 
100056c9  LL_ReadBDADDR                         
100059a1  LL_ReadChanMap                        
0001a1f1  LL_ReadDefaultDataLen                 
10005879  LL_ReadLocalSupportedFeatures         
1000589d  LL_ReadLocalVersionInfo               
0001a269  LL_ReadMaxDataLen                     
0001981f  LL_ReadRemoteUsedFeatures             
0001700b  LL_ReadRemoteUsedFeaturesCompleteCback
100058e9  LL_ReadRemoteVersionInfo              
100091e1  LL_ReadRemoteVersionInfoCback         
0001a2eb  LL_ReadRssi                           
0001a13d  LL_ReadSupportedStates                
000198f9  LL_ReadTxPowerLevel                   
100057a1  LL_ReadWlSize                         
10005765  LL_RemoveWhiteListDevice              
000195db  LL_Reset                              
00016e99  LL_RxDataCompleteCback                
0001b0bf  LL_RxEntryDoneCback                   
0001b0bd  LL_RxIgnoredCback                     
0001a02d  LL_SetAdvControl                      
10005f89  LL_SetAdvData                         
00019f1d  LL_SetAdvParam                        
0001a171  LL_SetDataLen                         
100056e9  LL_SetRandomAddress                   
1000612d  LL_SetScanRspData                     
10005549  LL_TX_bm_alloc                        
20004c84  LL_TaskID                             
00019937  LL_TxData                             
0001b08f  LL_TxDoneCback                        
0001b0a3  LL_TxEntryDoneCback                   
0001a21d  LL_WriteDefaultDataLen                
100158ac  LUTC                                  
100158dc  LUTINCI                               
100158f4  LUTJ                                  
1001588c  LUTOPCODE                             
10015894  LUTOPSIGN                             
100158c4  LUTSE                                 
1001596c  LUTSTATE                              
20004fe4  MOD                                   
20004fd8  MSBMOD                                
10016c79  MixColumns_Sw                         
10018b9c  NIST256_Gx                            
10018bc0  NIST256_Gy                            
10018b54  NIST256_a                             
10018b78  NIST256_b                             
10018b0c  NIST256_p                             
10018b30  NIST256_r                             
0001b6b7  NOROM_CPUcpsid                        
0001b6ab  NOROM_CPUcpsie                        
0001bad9  NOROM_IntDisable                      
0001bb41  NOROM_IntEnable                       
0001ba21  NOROM_TRNGConfigure                   
200048dc  OSAL_timeSeconds                      
0001bba1  Onboard_rand                          
0001bb9d  Onboard_soft_reset                    
10014c04  P1_ro                                 
10005004  P1_ro_1                               
10019ffe  P1_ro_2                               
1000dffe  P1_ro_2_1                             
20004f40  P2_rw                                 
20004f40  P2_s0                                 
20004fac  P2_zi                                 
200048fc  P2_zi_1                               
0001d678  R2F_Flash_JT                          
0001d660  R2F_Flash_JT_CommonROM                
0001d814  R2R_Flash_JT                          
0001d720  R2R_Flash_JT_CommonROM                
200048e8  RAM_BASE_ADDR                         
10017158  RCon                                  
00016dff  RFHAL_AddTxDataEntry                  
100184f9  RFHAL_AllocDataEntry                  
100184a9  RFHAL_AllocDataEntryQueue             
10018315  RFHAL_AllocRatChan                    
100185e1  RFHAL_BuildDataEntryRingBuffer        
10018669  RFHAL_BuildLinkedBuffer               
10018551  RFHAL_BuildRingBuffer                 
10018549  RFHAL_FreeDataEntry                   
100184c5  RFHAL_FreeDataEntryQueue              
10018485  RFHAL_FreeNextTxDataEntry             
1001833d  RFHAL_FreeRatChan                     
100184cd  RFHAL_GetNextDataEntry                
100184d1  RFHAL_GetTempDataEntry                
100183b9  RFHAL_InitDataQueue                   
00016d9b  RFHAL_InitRfHal                       
10018369  RFHAL_MapRatChansToInt                
100184d5  RFHAL_NextDataEntryDone               
100183c5  RFHAL_QueueRFDataEntries              
10018391  RFHAL_RegisterRatChanCallback         
10005001  ROM_BASE_ADDR                         
0001b9e3  ROM_Init                              
0001b98d  ROM_Spinlock                          
10016b79  RoundKey_Sw                           
10015101  SAVEPOINT                             
1000d964  SCA                                   
20004f68  SCAL                                  
100150e5  SCALARMUL                             
10014ced  SCALARMUL_core                        
10015019  SCALARMUL_final                       
10014c05  SCALARMUL_init                        
10015a51  SETOPERAND                            
10015a91  SETWORD                               
10018089  SHA256_final                          
10018129  SHA256_full                           
10017ffd  SHA256_init                           
10017ef1  SHA256_nextState                      
10018019  SHA256_process                        
10017e75  SHA256_round                          
10017f49  SHA256_saveBuffer                     
10017e39  SHA256_updateW                        
UNDEFED   SHT$$INIT_ARRAY$$Base                 
UNDEFED   SHT$$INIT_ARRAY$$Limit                
00014fc5  SM_CalcRandomAddr                     
00015053  SM_Encrypt                            
000152ed  SM_GenerateAuthenSig                  
000163b9  SM_Init                               
000156f3  SM_PasskeyUpdate                      
000163d5  SM_ProcessEvent                       
00014ffd  SM_ResolveRandomAddrs                 
00015e49  SM_ResponderInit                      
00015665  SM_StartPairing                       
00015387  SM_VerifyAuthenSig                    
10015821  SQUAREMULTIPLYWORD                    
10017895  SSP_CCM_Auth_Encrypt_Sw               
10017365  SSP_CCM_Auth_Sw                       
1001767d  SSP_CCM_Decrypt_Sw                    
100174fd  SSP_CCM_Encrypt_Sw                    
100178f5  SSP_CCM_InvAuth_Decrypt_Sw            
10017839  SSP_CCM_InvAuth_Sw                    
10017771  SSP_CTR_Decrypt_Sw                    
100175ed  SSP_CTR_Encrypt_Sw                    
10017164  Sbox                                  
10015215  SelectReg                             
10016c45  ShiftRows_Sw                          
20004748  SysBootMsg                            
20004f88  TMP1                                  
20004f8c  TMP2                                  
20004f90  TMP3                                  
20004f94  TMP4                                  
20004f98  TMP5                                  
20004f9c  TMP6                                  
1000d2d9  WL_AddEntry                           
0001add7  WL_Clear                              
1000d1f5  WL_ClearEntry                         
0001ae67  WL_ClearIgnoreList                    
0001ae05  WL_FindEntry                          
0001adfb  WL_GetNumFreeEntries                  
1000d229  WL_GetSize                            
1000d189  WL_Init                               
1000d36d  WL_RemoveEntry                        
0001ae47  WL_SetWlIgnore                        
10015a85  ZERO                                  
0001dda8  __TI_CINIT_Base                       
0001ddb8  __TI_CINIT_Limit                      
0001dda0  __TI_Handler_Table_Base               
0001dda8  __TI_Handler_Table_Limit              
0001b319  __TI_auto_init                        
0001d231  __TI_decompress_none                  
0001d22b  __TI_decompress_rle24                 
ffffffff  __TI_pprof_out_hndl                   
ffffffff  __TI_prof_data_size                   
ffffffff  __TI_prof_data_start                  
00010000  __TI_static_base__                    
0001b389  __aeabi_lmul                          
0001b43d  __aeabi_memclr                        
0001b43d  __aeabi_memclr4                       
0001b43d  __aeabi_memclr8                       
0001b3a1  __aeabi_memcpy                        
0001b3a1  __aeabi_memcpy4                       
0001b3a1  __aeabi_memcpy8                       
0001b43f  __aeabi_memset                        
0001b43f  __aeabi_memset4                       
0001b43f  __aeabi_memset8                       
0001b4b7  __aeabi_uldivmod                      
ffffffff  __binit__                             
ffffffff  __c_args__                            
1000dffe  __checksum                            
10019ffe  __checksum_CommonROM                  
10005000  __checksum_begin                      
10014c00  __checksum_begin_CommonROM            
1000dffd  __checksum_end                        
10019ffd  __checksum_end_CommonROM              
00005721  __checksum_value                      
0000e0ea  __checksum_value_CommonROM            
10018ced  __exit                                
00012e17  _system_post_cinit                    
1000d9b0  advChan                               
20004c24  advCmd                                
20004bdc  advDataEntry                          
20004c14  advDataQueue                          
1000d9b4  advEvt2Cmd                            
1000d9c0  advEvt2State                          
200049ec  advInfo                               
2000471c  advInfoExt                            
20004e98  advOutput                             
20004d58  advParam                              
0001dd54  advPktSuffix                          
0001bb9f  appForceBoot                          
200046a5  appTaskID                             
00013230  appearanceUUID                        
20004828  assertSubcause                        
00010667  attSendMsg                            
20004fdc  aux64                                 
2000485c  baseTaskID                            
ffffffff  binit                                 
0001cdf7  bleDispatch_BMAlloc                   
0001ce23  bleDispatch_BMFree                    
0001ce3b  bleDispatch_Init                      
0001cd97  bleDispatch_ProcessEvent              
200044e4  bleDispatch_TaskID                    
20004f08  bleEvtMask                            
000107f4  btBaseUUID                            
20004c98  buildInfo                             
20004ee8  cachedTRNGdata                        
20004860  cbTimers                              
20004ca8  chanMapUpdate                         
00013228  charAggFormatUUID                     
00013214  charExtPropsUUID                      
00013224  charFormatUUID                        
00013218  charUserDescUUID                      
00013210  characterUUID                         
0001321c  clientCharCfgUUID                     
2000472a  connInitialMaxTxOctets                
2000472c  connInitialMaxTxTime                  
20004e70  connOutput                            
20004dc8  connReqData                           
00015654  const_Rb                              
0001d175  copy_in                               
20004f24  ctrlToHostEnable                      
20004cb9  curTxPowerVal                         
20004fa0  data_Gx                               
20004fa4  data_Gy                               
20004f50  data_a                                
20004fa8  data_b                                
20004f48  data_p                                
20004f4c  data_r                                
20004ed0  deviceFeatureSet                      
0001322c  deviceNameUUID                        
20004edc  dtmInfo                               
00013248  extReportRefUUID                      
20004cbb  fastTxRespTime                        
20004720  fwImmedCmd                            
20004fcc  fwInfoCmd                             
20004700  fwParDtmCmd                           
00010a1f  gapAddAddrAdj                         
2000455c  gapAppTaskID                          
2000455f  gapAutoAdvPrivateAddrChange           
00010bd1  gapClrState                           
2000455e  gapDeviceAddrMode                     
00010b73  gapFindADType                         
00011331  gapFreeEstLink                        
00010adb  gapGetDevAddress                      
00010ad5  gapGetDevAddressMode                  
00010aad  gapGetSRK                             
00010ab3  gapGetSignCounter                     
00010a43  gapHost2CtrlOwnAddrType               
00010abb  gapIncSignCounter                     
00010b51  gapIsAdvertising                      
00010b55  gapIsScanning                         
00011461  gapPairingCompleteCB                  
000113f9  gapPasskeyNeededCB                    
20004560  gapPrivateAddrChangeTimeout           
00010ffd  gapProcessConnectionCompleteEvt       
000110d7  gapProcessDisconnectCompleteEvt       
000109f1  gapProcessNewAddr                     
00010a4d  gapProcessRandomAddrComplete          
000110ab  gapProcessRemoteConnParamReqEvt       
2000455d  gapProfileRole                        
00010971  gapReadBD_ADDRStatus                  
000109ad  gapReadBufSizeCmdStatus               
00011fa1  gapRegisterCentral                    
00011fa7  gapRegisterPeripheral                 
00011591  gapRegisterPeripheralConn             
0001134d  gapSendBondCompleteEvent              
000111bd  gapSendLinkUpdateEvent                
0001139f  gapSendPairingReqEvent                
00010fbb  gapSendSlaveSecurityReqEvent          
000122f4  gapServiceCBs                         
000131fc  gapServiceUUID                        
00010bc7  gapSetState                           
20004404  gapState                              
200045f8  gapTaskID                             
200045f9  gapUnwantedTaskID                     
00010f69  gapUpdateConnSignCounter              
00010b5f  gapValidADType                        
200046a4  gattAppTaskID                         
00013031  gattGetPayload                        
00012f4b  gattNotifyEvent                       
20004405  gattNumConns                          
00012e1f  gattRegisterClient                    
00012e19  gattRegisterServer                    
00013003  gattSendFlowCtrlEvt                   
00013200  gattServiceUUID                       
00012fa1  gattStartTimer                        
00012fb1  gattStopTimer                         
20004406  gattTaskID                            
2000482c  halAssertCback                        
0001baa5  halAssertHandler                      
0001baa9  halAssertHandlerExt                   
0001babf  halAssertInit                         
0001baa7  halAssertSpinlock                     
200044dd  hciExtTaskID                          
200044da  hciGapTaskID                          
00016f41  hciInitEventMasks                     
200044db  hciL2capTaskID                        
20004f28  hciPTMenabled                         
200044dc  hciSmpTaskID                          
200044d8  hciTaskID                             
200044d9  hciTestTaskID                         
20004f58  inPointX                              
20004f5c  inPointY                              
20004f54  inScalar                              
0001320c  includeUUID                           
20004db0  initCmd                               
20004b94  initDataEntry                         
20004bcc  initDataQueue                         
20004e58  initInfo                              
20004eb8  initOutput                            
20004cf0  initParam                             
0001dd5c  initPktSuffix                         
00014b19  l2capAllocConnChannel                 
000149b9  l2capBuildInfoReq                     
00014947  l2capBuildParamUpdateReq              
200046bc  l2capChannels                         
00014c15  l2capDisconnectAllChannels            
000147c9  l2capEncapSendData                    
00014b79  l2capFindLocalId                      
20004448  l2capFixedChannels                    
00014b6b  l2capFreeChannel                      
00014c13  l2capHandleRxError                    
20004478  l2capId                               
200046a6  l2capMtuSize                          
00014a87  l2capNotifyData                       
00014acb  l2capNotifySignal                     
200046b9  l2capNumChannels                      
200046ba  l2capNumDataPkts                      
00014907  l2capParseCmdReject                   
00014a27  l2capParseInfoRsp                     
00014873  l2capParsePacket                      
000149af  l2capParseParamUpdateRsp              
0001464d  l2capParseSignalHdr                   
000146c5  l2capSendCmd                          
0001475b  l2capSendPkt                          
00014661  l2capSendReq                          
00014ba3  l2capStartTimer                       
00014bb7  l2capStopTimer                        
00014735  l2capStoreFCPkt                       
200046b8  l2capTaskID                           
20004829  legacyMode                            
2000447c  linkDBNumConns                        
00014d45  linkDB_Add                            
00014f27  linkDB_Authen                         
00014e47  linkDB_Find                           
00014e71  linkDB_FindFirst                      
00014e07  linkDB_GetInfo                        
00014cd9  linkDB_Init                           
00014f1b  linkDB_MTU                            
00014ed1  linkDB_NumActive                      
00014ef9  linkDB_NumConns                       
00014f73  linkDB_PerformFunc                    
00014d27  linkDB_Register                       
00014dab  linkDB_Remove                         
00014ec5  linkDB_Role                           
00014ea3  linkDB_State                          
00014ddf  linkDB_Update                         
00014eff  linkDB_UpdateMTU                      
00014f9f  linkDB_reportStatusChange             
0001a52b  llActiveTask                          
1000cd51  llAdv_TaskAbort                       
000179eb  llAdv_TaskConnect                     
00017923  llAdv_TaskEnd                         
00018481  llAlignToNextEvent                    
00017d9b  llAllocConnId                         
0001a4af  llAllocTask                           
100082f1  llAtLeastTwoChans                     
1000d94d  llCalcScaFactor                       
1000c1b5  llCheckForLstoDuringSL                
00016cf5  llCheckRxBuffers                      
00018649  llCheckWhiteListUsage                 
100072e9  llClearRfInts                         
00018353  llCombinePDU                          
0001dd6c  llConfigTable                         
000180dd  llConnCleanup                         
10008631  llConnTerminate                       
20004740  llConnectionExt                       
20004cb0  llConns                               
10008741  llConvertCtrlProcTimeoutToEvent       
10008721  llConvertLstoToEvent                  
00016cb7  llCreateRxBuffer                      
10008985  llDataQEmpty                          
10008965  llDataQFull                           
000181b7  llDequeueCtrlPkt                      
10008921  llDequeueDataQ                        
000178c1  llDirAdv_TaskEnd                      
100072e5  llDisableRfInts                       
100072ed  llEnableRfInts                        
100080bd  llEnqueueCtrlPkt                      
10008889  llEnqueueDataQ                        
100088b5  llEnqueueHeadDataQ                    
1000d795  llEqAlreadyValidAddr                  
1000d6e5  llEqSynchWord                         
1000d709  llEqualBytes                          
10008719  llEventDelta                          
100086f1  llEventInRange                        
1000a939  llFindNextSecTask                     
1000a895  llFindStartType                       
000182db  llFragmentPDU                         
1000abed  llFreeTask                            
100086b9  llGenerateCRC                         
1000d695  llGenerateValidAccessAddr             
1000aca9  llGetActiveTasks                      
1000d4ad  llGetAdvChanPDU                       
1000ac3d  llGetCurrentTask                      
0001a46f  llGetCurrentTime                      
0001826f  llGetMinCI                            
0001821f  llGetNextConn                         
0001869f  llGetNextDataChan                     
1000ace1  llGetNumTasks                         
1000b009  llGetNumTxDataEntries                 
000188a3  llGetSlowestPhy                       
0001a561  llGetTask                             
0001a509  llGetTaskState                        
00018633  llGetTxPower                          
1000d6b1  llGtSixConsecZerosOrOnes              
1000d731  llGtTwentyFourTransitions             
000188c3  llHaltRadio                           
000189df  llHardwareError                       
00017f21  llInitFeatureSet                      
0001a46d  llInitRAT                             
1000d761  llLtTwoChangesInLastSixBits           
100089f1  llMemCopyDst                          
100089d9  llMemCopySrc                          
1000afa1  llMoveTempTxDataEntries               
0001886f  llOctets2Time                         
1000d6f5  llOneBitSynchWordDiffer               
1000adb1  llPatchCM0                            
10008665  llPendingUpdateParam                  
0001865f  llProcessChanMap                      
100072f1  llProcessPostRfOps                    
0001683d  llProcessSlaveControlPacket           
0001aa97  llProcessSlaveControlProcedures       
00018073  llProcessTxData                       
00016d99  llRatChanCBack_A                      
1000ae41  llRatChanCBack_B                      
1000ae45  llRatChanCBack_C                      
1000ae49  llRatChanCBack_D                      
10008461  llReleaseAllConnId                    
10008429  llReleaseConnId                       
000181f3  llReplaceCtrlPkt                      
00016d1b  llReplaceRxBuffers                    
000189dd  llResetRadio                          
00018575  llRfInit                              
0001852d  llRfSetup                             
000188e3  llRfStartFS                           
0001a591  llScheduleTask                        
1000a335  llScheduler                           
0001a47d  llSchedulerInit                       
00018739  llSendReject                          
100072e1  llSetFreqTune                         
000186eb  llSetNextDataChan                     
000185e3  llSetTxPower                          
100073e5  llSetupAdv                            
1000aeb1  llSetupAdvDataEntryQueue              
00016c17  llSetupConnRxDataEntryQueue           
10007aed  llSetupEncReq                         
10007b95  llSetupEncRsp                         
00017f39  llSetupFeatureSetRsp                  
100077b5  llSetupInit                           
1000ae95  llSetupInitDataEntryQueue             
00017f9f  llSetupLenCtrlPkt                     
0001a7f7  llSetupNextSlaveEvent                 
10007cfd  llSetupPauseEncReq                    
10007d55  llSetupPauseEncRsp                    
00016d67  llSetupRATChanCompare                 
10007df5  llSetupRejectInd                      
00016d4d  llSetupRfHal                          
100075fd  llSetupScan                           
1000ae4d  llSetupScanDataEntryQueue             
00018031  llSetupStartEncReq                    
10007ca9  llSetupStartEncRsp                    
00018757  llSetupTermInd                        
10008069  llSetupUnknownRsp                     
100079c9  llSetupUpdateParamReq                 
10007f29  llSetupVersionIndReq                  
0001a625  llSlave_TaskEnd                       
20004cb8  llState                               
1000d9e1  llTaskError                           
20004ef4  llTaskList                            
00018841  llTime2Octets                         
1000d8c9  llTimeCompare                         
1000d8f5  llTimeDelta                           
200046dc  llUserConfig                          
000189e3  llValidateConnParams                  
00017d19  llVerifyConnParamReqParams            
000187c5  llWriteTxData                         
0001dd9c  ll_buildRevision                      
10016551  mADD                                  
10015bd5  mINVK                                 
10015f81  mMULT                                 
10016749  mOUT                                  
10015a9d  mSET                                  
1001664d  mSUB                                  
20004cbc  maxNumConns                           
2000471a  maxNumTxDataBufs                      
20004718  maxPduSize                            
0001dd64  maxPktsPerEvt                         
20004c85  maxTxPwrForDTM                        
0001b3a1  memcpy                                
0001b445  memset                                
20004f14  mstCmd                                
20004f18  mstParam                              
20004cba  numComplPkts                          
20004c88  numComplPktsFlush                     
20004c87  numComplPktsLimit                     
20004f26  numHostBufs                           
20004c8b  numTxDataBufs                         
20004c86  onePktPerEvt                          
0001b6df  osalAddTimer                          
0001cf6d  osalAdjustTimer                       
0001b723  osalDeleteTimer                       
0001b6c5  osalFindTimer                         
0001d0a1  osalInitTasks                         
0001b93b  osalTimerInit                         
0001b76d  osalTimerUpdate                       
0001c45f  osal_CbTimerInit                      
0001c3d5  osal_CbTimerProcessEvent              
0001c54f  osal_CbTimerStart                     
0001c477  osal_CbTimerStop                      
0001bbd1  osal_bm_adjust_header                 
0001bbf9  osal_bm_alloc                         
0001bc2b  osal_bm_free                          
0001c3a3  osal_buffer_uint32                    
0001c375  osal_build_uint32                     
0001bf55  osal_clear_event                      
0001c059  osal_enroll_dispatchid                
0001c065  osal_enroll_senderid                  
20004831  osal_entity                           
20004838  osal_eventloop_hook                   
0001b72b  osal_get_timeoutEx                    
0001c0a9  osal_init_system                      
0001c351  osal_isbufset                         
20004524  osal_last_timestamp                   
20004844  osal_max_msecs                        
0001cfbf  osal_mem_alloc                        
0001cfc3  osal_mem_free                         
0001c32d  osal_memcmp                           
0001bc85  osal_memcpy                           
0001c311  osal_memdup                           
0001bc81  osal_memset                           
0001bc9d  osal_msg_allocate                     
0001bcc7  osal_msg_deallocate                   
0001bd93  osal_msg_enqueue                      
0001bcfd  osal_msg_extract                      
0001bdc3  osal_msg_push                         
0001bd33  osal_msg_receive                      
0001be3b  osal_msg_send                         
0001b94b  osal_next_timeout                     
0001cf1f  osal_pwrmgr_init                      
0001ceb5  osal_pwrmgr_task_state                
20004834  osal_qHead                            
0001bba1  osal_rand                             
0001c2f5  osal_revmemcpy                        
0001c1b1  osal_run_system                       
0001bcc1  osal_self                             
2000483c  osal_semaphore                        
0001c00d  osal_service_entry                    
0001bec1  osal_set_event                        
0001ce51  osal_snv_read                         
0001ce4d  osal_snv_write                        
0001b905  osal_start_reload_timer               
0001c2cb  osal_start_system                     
0001b89b  osal_start_timerEx                    
0001b8d5  osal_stop_timerEx                     
0001c2e7  osal_strlen                           
20004840  osal_tickperiod                       
0001b84f  osal_timer_refTimeUpdate              
20004f60  outPointX                             
20004f64  outPointY                             
20004c6c  ownPublicAddr                         
20004c74  ownRandomAddr                         
20004c7c  ownSavedPublicAddr                    
200045d0  pAuthLink                             
200044c0  pBleEvtMask                           
200045cc  pEstLink                              
20004400  pGapAdvertState                       
200043fc  pGapDiscReq                           
20004f00  pHciEvtMask                           
200044c8  pHciEvtMask2                          
200044b4  pPairingParams                        
20004ffc  pSspAesEncrypt_Sw                     
20004c9c  peerInfo                              
0001323c  periConnParamUUID                     
00013234  periPrivacyFlagUUID                   
2000440c  pfnBondMgrCBs                         
200045d4  pfnCentralConnCBs                     
200045fc  pfnPeripheralCBs                      
20004408  pfnPeripheralConnCBs                  
200044b8  pfnResponderCBs                       
20004cbe  postRfOperations                      
00013204  primaryServiceUUID                    
200048e2  pwrmgr_attribute                      
200048e0  pwrmgr_initialized                    
20004fac  ratChanInfo                           
00013238  reconnectAddrUUID                     
0001324c  reportRefUUID                         
20004607  reqTaskId                             
0001ae97  rfCallback                            
20004c94  rfCfgAdiVal                           
0001dd4c  rfCfgVal                              
20004728  rfCmdHandle                           
2000473c  rfDrvTblPtr                           
200044d0  rfEvent                               
20004719  rfFeModeBias                          
20004738  rfHandle                              
20004750  rfMode                                
20004790  rfObject                              
0001dd68  rfOpLoc                               
0001ae85  rfPUpCallback                         
20004760  rfParams                              
20004774  rfSetup                               
1000dffc  romRev                                
200044e5  rspBuf                                
20004cc0  rssiCorrection                        
20004f0c  rxDataQ                               
20004c8a  rxFifoFlowCtrl                        
20004e40  rxModemTestCmd                        
0001dd50  rxPktSuffix                           
20004f10  rxRingBuf                             
20004ec4  rxTestOut                             
20004e84  rxTestParam                           
20004df8  scanCmd                               
200048fc  scanDataEntry                         
200049dc  scanDataQueue                         
20004d94  scanInfo                              
20004e10  scanOutput                            
20004d14  scanParam                             
0001dd58  scanPktSuffix                         
2000474c  sclkSrc                               
00013208  secondaryServiceUUID                  
00011139  sendEstLinkEvent                      
00013220  servCharCfgUUID                       
20004414  serverInfoTbl                         
00013240  serviceChangedUUID                    
0001cfe5  setBleUserConfig                      
20004c89  slOverride                            
200045c8  slaveConnHandle                       
200045c0  slaveUpdateReq                        
20004c96  sleepDelay                            
20004de0  slvCmd                                
20004d38  slvParam                              
00015277  smAuthReqToUint8                      
00015d71  smDetermineKeySize                    
00015d41  smEndPairing                          
00015ab3  smGenerateConfirm                     
00015a87  smGeneratePairingReqRsp               
0001524d  smGenerateRandBuf                     
00015acb  smGenerateRandMsg                     
00015781  smLinkCheck                           
00015949  smNextPairingState                    
00015c95  smPairingSendEncInfo                  
00015ccd  smPairingSendIdentityAddrInfo         
00015cc3  smPairingSendIdentityInfo             
00015c9b  smPairingSendMasterID                 
00015cf1  smPairingSendSigningInfo              
000157a9  smProcessDataMsg                      
00015899  smProcessEncryptChange                
00015a17  smProcessPairingReq                   
00015771  smRegisterInitiator                   
00015779  smRegisterResponder                   
00015af5  smSavePairInfo                        
0001587d  smSendFailAndEnd                      
00015e01  smSendFailureEvt                      
000167f3  smSendSMMsg                           
00015a6d  smStartEncryption                     
00015091  smStartRspTimer                       
000150ad  smStopRspTimer                        
20004479  smTaskID                              
000157a3  smTimedOut                            
000152a5  smUint8ToAuthReq                      
00015979  sm_c1                                 
0001513f  sm_c1new                              
000150bd  sm_d1                                 
00015115  sm_dm                                 
0001520d  sm_s1                                 
000166c1  smpBuildEncInfo                       
00016743  smpBuildIdentityAddrInfo              
00016731  smpBuildIdentityInfo                  
000166e9  smpBuildMasterID                      
0001662b  smpBuildPairingConfirm                
0001668b  smpBuildPairingFailed                 
00016653  smpBuildPairingRandom                 
000164a1  smpBuildPairingReq                    
000164af  smpBuildPairingReqRsp                 
000164a9  smpBuildPairingRsp                    
000167bb  smpBuildSecurityReq                   
00016793  smpBuildSigningInfo                   
000166d3  smpParseEncInfo                       
00016777  smpParseIdentityAddrInfo              
00016761  smpParseIdentityInfo                  
0001670d  smpParseMasterID                      
0001663d  smpParsePairingConfirm                
000166a3  smpParsePairingFailed                 
00016675  smpParsePairingRandom                 
00016557  smpParsePairingReq                    
000167d7  smpParseSecurityReq                   
000167a5  smpParseSigningInfo                   
10016d29  sspAesDecrypt_Sw                      
10016af5  sspAesEncryptBasic_Sw                 
10016a99  sspAesEncryptKeyExp_Sw                
10016979  sspAesEncrypt_Sw                      
10016985  sspKeyExpansion_Sw                    
10016975  ssp_KeyInit_Sw                        
0001d117  stack_main                            
00010001  startup_entry                         
0001d161  strlen                                
0001787c  supportedCmdsTable                    
20004732  supportedMaxRxOctets                  
20004734  supportedMaxRxTime                    
2000472e  supportedMaxTxOctets                  
20004730  supportedMaxTxTime                    
20004cc4  taskEndAction                         
20004f0a  taskEndStatus                         
0001d63c  tasksArr                              
20004538  tasksEvents                           
20004520  timerHead                             
20004744  trngDrvTblPtr                         
20004e28  trxTestCmd                            
20004f1c  txDataQ                               
20004d78  txModemTestCmd                        
0001dd40  txPowerTable                          
0001dd44  txPwrTbl                              
20004f20  txTestOut                             
20004ea8  txTestParam                           
00013244  validRangeUUID                        
20004c8c  verInfo                               
20004f40  win                                   
0001dd60  wlSize                                
20004a8c  wlTable                               
20004b10  wlTableScan                           
20004f44  workzone                              
10015d19  zADD                                  
10015eb5  zADD32                                
10015de9  zMACC32                               
10015f0d  zMULT32                               
10015bcd  zSET                                  
10015d5d  zSUB                                  
10015e69  zSUB32                                


GLOBAL SYMBOLS: SORTED BY Symbol Address 

address   name                                  
-------   ----                                  
00005721  __checksum_value                      
0000e0ea  __checksum_value_CommonROM            
00010000  __TI_static_base__                    
00010001  startup_entry                         
0001004d  ATT_RegisterServer                    
00010053  ATT_ErrorRsp                          
00010065  ATT_ExchangeMTURsp                    
0001007d  ATT_FindInfoRsp                       
000100ad  ATT_FindByTypeValueRsp                
000100cd  ATT_ReadByTypeRsp                     
000100f9  ATT_ReadRsp                           
00010115  ATT_ReadBlobRsp                       
00010131  ATT_ReadMultiRsp                      
0001014f  ATT_ReadByGrpTypeRsp                  
00010171  ATT_WriteRsp                          
0001017d  ATT_PrepareWriteRsp                   
00010197  ATT_ExecuteWriteRsp                   
000101a3  ATT_HandleValueNoti                   
000101b9  ATT_HandleValueInd                    
00010239  ATT_ParsePacket                       
00010293  ATT_BuildErrorRsp                     
000102a5  ATT_ParseErrorRsp                     
000102c3  ATT_BuildExchangeMTUReq               
000102c5  ATT_ParseExchangeMTUReq               
000102cf  ATT_BuildExchangeMTURsp               
000102df  ATT_ParseExchangeMTURsp               
000102f5  ATT_BuildFindInfoReq                  
000102f7  ATT_ParseFindInfoReq                  
00010301  ATT_BuildFindInfoRsp                  
00010319  ATT_ParseFindInfoRsp                  
0001035d  ATT_BuildFindByTypeValueReq           
00010377  ATT_ParseFindByTypeValueReq           
000103b9  ATT_BuildFindByTypeValueRsp           
000103c1  ATT_ParseFindByTypeValueRsp           
000103db  ATT_BuildReadByTypeReq                
0001040b  ATT_ParseReadByTypeReq                
00010447  ATT_BuildReadByTypeRsp                
00010449  ATT_ParseReadByTypeRsp                
0001046b  ATT_BuildReadReq                      
0001046d  ATT_ParseReadReq                      
00010487  ATT_BuildReadRsp                      
0001048b  ATT_ParseReadRsp                      
0001048d  ATT_ParseWriteReq                     
000104b7  ATT_BuildWriteReq                     
000104b9  ATT_ParseWriteRsp                     
000104c3  ATT_BuildReadBlobReq                  
000104dd  ATT_ParseReadBlobReq                  
00010501  ATT_BuildReadBlobRsp                  
00010505  ATT_ParseReadBlobRsp                  
00010513  ATT_BuildReadMultiReq                 
0001051b  ATT_ParseReadMultiReq                 
0001053b  ATT_BuildReadMultiRsp                 
0001053f  ATT_ParseReadMultiRsp                 
00010541  ATT_BuildReadByGrpTypeRsp             
00010553  ATT_ParseReadByGrpTypeRsp             
0001057f  ATT_BuildPrepareWriteReq              
00010581  ATT_ParsePrepareWriteReq              
000105a9  ATT_BuildPrepareWriteRsp              
000105c7  ATT_ParsePrepareWriteRsp              
000105f9  ATT_BuildExecuteWriteReq              
00010601  ATT_ParseExecuteWriteReq              
00010613  ATT_ParseExecuteWriteRsp              
0001061d  ATT_BuildHandleValueInd               
00010631  ATT_ParseHandleValueInd               
0001065d  ATT_ParseHandleValueCfm               
00010667  attSendMsg                            
000106ed  ATT_CompareUUID                       
0001073d  ATT_ConvertUUIDto128                  
00010765  ATT_ConvertUUIDto16                   
000107a3  ATT_UpdateMTU                         
000107cd  ATT_GetMTU                            
000107ed  ATT_SetParamValue                     
000107ef  ATT_GetParamValue                     
000107f4  btBaseUUID                            
00010805  GAP_SetParamValue                     
0001081f  GAP_GetParamValue                     
00010831  GAP_ParamsInit                        
00010859  GAP_SecParamsInit                     
00010873  GAP_PrivacyInit                       
00010895  GAP_GetIRK                            
0001089b  GAP_ConfigDeviceAddr                  
00010971  gapReadBD_ADDRStatus                  
000109ad  gapReadBufSizeCmdStatus               
000109f1  gapProcessNewAddr                     
00010a1f  gapAddAddrAdj                         
00010a43  gapHost2CtrlOwnAddrType               
00010a4d  gapProcessRandomAddrComplete          
00010aad  gapGetSRK                             
00010ab3  gapGetSignCounter                     
00010abb  gapIncSignCounter                     
00010ad5  gapGetDevAddressMode                  
00010adb  gapGetDevAddress                      
00010b4d  GAP_ResolvePrivateAddr                
00010b51  gapIsAdvertising                      
00010b55  gapIsScanning                         
00010b5f  gapValidADType                        
00010b73  gapFindADType                         
00010bc7  gapSetState                           
00010bd1  gapClrState                           
00010bfd  GAP_TerminateLinkReq                  
00010c77  GAP_UpdateLinkParamReq                
00010cdf  GAP_UpdateLinkParamReqReply           
00010d71  GAP_Signable                          
00010db9  GAP_Authenticate                      
00010e55  GAP_TerminateAuth                     
00010e73  GAP_PasskeyUpdate                     
00010ea7  GAP_PasscodeUpdate                    
00010ef3  GAP_Bond                              
00010f69  gapUpdateConnSignCounter              
00010fbb  gapSendSlaveSecurityReqEvent          
00010ffd  gapProcessConnectionCompleteEvt       
000110ab  gapProcessRemoteConnParamReqEvt       
000110d7  gapProcessDisconnectCompleteEvt       
00011139  sendEstLinkEvent                      
000111bd  gapSendLinkUpdateEvent                
00011331  gapFreeEstLink                        
0001134d  gapSendBondCompleteEvent              
0001139f  gapSendPairingReqEvent                
000113f9  gapPasskeyNeededCB                    
00011461  gapPairingCompleteCB                  
00011591  gapRegisterPeripheralConn             
000115b5  GAP_MakeDiscoverable                  
00011647  GAP_UpdateAdvertisingData             
000116af  GAP_EndDiscoverable                   
000116fb  GAP_SetAdvToken                       
000117a5  GAP_GetAdvToken                       
000117bb  GAP_RemoveAdvToken                    
00011805  GAP_UpdateAdvTokens                   
00011819  GAP_PeriDevMgrInit                    
00011bd9  GAP_SendSlaveSecurityRequest          
00011c13  GAP_PeriConnRegister                  
00011ce9  GAP_RegisterForMsgs                   
00011cef  GAP_Init                              
00011d05  GAP_ProcessEvent                      
00011dcd  GAP_NumActiveConnections              
00011fa1  gapRegisterCentral                    
00011fa7  gapRegisterPeripheral                 
00011fad  GAP_RegisterBondMgrCBs                
00011fd5  GGS_SetParameter                      
00012055  GGS_GetParameter                      
0001208b  GGS_SetParamValue                     
0001208d  GGS_GetParamValue                     
00012091  GGS_AddService                        
000120a9  GGS_DelService                        
000120bd  GGS_RegisterAppCBs                    
000122f4  gapServiceCBs                         
00012301  GATT_InitServer                       
00012369  GATT_RegisterService                  
00012405  GATT_DeregisterService                
00012445  GATT_RegisterForReq                   
0001244d  GATT_VerifyReadPermissions            
00012483  GATT_VerifyWritePermissions           
000124d7  GATT_ServiceChangedInd                
00012549  GATT_FindHandleUUID                   
000125a7  GATT_FindHandle                       
000125f3  GATT_FindNextAttr                     
00012677  GATT_ServiceNumAttrs                  
00012683  GATT_ServiceEncKeySize                
00012693  GATT_SendRsp                          
00012747  GATT_Indication                       
000127b3  GATT_Notification                     
00012da5  GATT_GetNextHandle                    
00012e15  GATT_SetNextHandle                    
00012e17  _system_post_cinit                    
00012e19  gattRegisterServer                    
00012e1f  gattRegisterClient                    
00012e25  GATT_RegisterForMsgs                  
00012e2b  GATT_SetHostToAppFlowCtrl             
00012e37  GATT_AppCompletedMsg                  
00012e5f  GATT_Init                             
00012e7d  GATT_ProcessEvent                     
00012f4b  gattNotifyEvent                       
00012fa1  gattStartTimer                        
00012fb1  gattStopTimer                         
00012fc9  GATT_NotifyEvent                      
00012fdd  GATT_UpdateMTU                        
00013003  gattSendFlowCtrlEvt                   
00013031  gattGetPayload                        
00013085  GATT_bm_alloc                         
000130fd  GATT_bm_free                          
00013111  GATT_FindUUIDRec                      
000131fc  gapServiceUUID                        
00013200  gattServiceUUID                       
00013204  primaryServiceUUID                    
00013208  secondaryServiceUUID                  
0001320c  includeUUID                           
00013210  characterUUID                         
00013214  charExtPropsUUID                      
00013218  charUserDescUUID                      
0001321c  clientCharCfgUUID                     
00013220  servCharCfgUUID                       
00013224  charFormatUUID                        
00013228  charAggFormatUUID                     
0001322c  deviceNameUUID                        
00013230  appearanceUUID                        
00013234  periPrivacyFlagUUID                   
00013238  reconnectAddrUUID                     
0001323c  periConnParamUUID                     
00013240  serviceChangedUUID                    
00013244  validRangeUUID                        
00013248  extReportRefUUID                      
0001324c  reportRefUUID                         
00013251  GATTServApp_RegisterForMsg            
00013259  GATTServApp_Init                      
000132a7  GATTServApp_ProcessEvent              
000132e5  GATTServApp_RegisterService           
0001333b  GATTServApp_DeregisterService         
0001337f  GATTServApp_SetParameter              
000133dd  GATTServApp_GetParameter              
00013497  GATTServApp_AddService                
000134ad  GATTServApp_DelService                
00013ee1  GATTServApp_ReadAttr                  
000140d9  GATTServApp_WriteAttr                 
00014161  GATTServApp_SetParamValue             
00014163  GATTServApp_GetParamValue             
00014167  GATTServApp_UpdateCharCfg             
000141d9  GATTServApp_SendCCCUpdatedEvent       
0001421d  L2CAP_RegisterApp                     
00014247  L2CAP_SendData                        
000142a9  L2CAP_CmdReject                       
000142b7  L2CAP_InfoReq                         
000142cf  L2CAP_ConnParamUpdateReq              
00014305  L2CAP_ConnParamUpdateRsp              
00014317  L2CAP_SetControllerToHostFlowCtrl     
00014351  L2CAP_HostNumCompletedPkts            
00014367  L2CAP_SetBufSize                      
00014373  L2CAP_GetMTU                          
00014399  L2CAP_SetUserConfig                   
0001439d  L2CAP_Init                            
000143ff  L2CAP_ProcessEvent                    
0001450d  L2CAP_RegisterFlowCtrlTask            
0001464d  l2capParseSignalHdr                   
00014661  l2capSendReq                          
000146c5  l2capSendCmd                          
00014735  l2capStoreFCPkt                       
0001475b  l2capSendPkt                          
000147c9  l2capEncapSendData                    
00014873  l2capParsePacket                      
000148c9  L2CAP_BuildCmdReject                  
00014907  l2capParseCmdReject                   
00014947  l2capBuildParamUpdateReq              
00014973  L2CAP_ParseParamUpdateReq             
000149ad  L2CAP_BuildParamUpdateRsp             
000149af  l2capParseParamUpdateRsp              
000149b9  l2capBuildInfoReq                     
000149c9  L2CAP_ParseInfoReq                    
000149e1  L2CAP_BuildInfoRsp                    
00014a27  l2capParseInfoRsp                     
00014a87  l2capNotifyData                       
00014acb  l2capNotifySignal                     
00014b19  l2capAllocConnChannel                 
00014b6b  l2capFreeChannel                      
00014b79  l2capFindLocalId                      
00014ba3  l2capStartTimer                       
00014bb7  l2capStopTimer                        
00014c13  l2capHandleRxError                    
00014c15  l2capDisconnectAllChannels            
00014cb9  L2CAP_bm_alloc                        
00014cd3  L2CAP_SetParamValue                   
00014cd5  L2CAP_GetParamValue                   
00014cd9  linkDB_Init                           
00014d27  linkDB_Register                       
00014d45  linkDB_Add                            
00014dab  linkDB_Remove                         
00014ddf  linkDB_Update                         
00014e07  linkDB_GetInfo                        
00014e47  linkDB_Find                           
00014e71  linkDB_FindFirst                      
00014ea3  linkDB_State                          
00014ec5  linkDB_Role                           
00014ed1  linkDB_NumActive                      
00014ef9  linkDB_NumConns                       
00014eff  linkDB_UpdateMTU                      
00014f1b  linkDB_MTU                            
00014f27  linkDB_Authen                         
00014f73  linkDB_PerformFunc                    
00014f9f  linkDB_reportStatusChange             
00014fc5  SM_CalcRandomAddr                     
00014ffd  SM_ResolveRandomAddrs                 
00015053  SM_Encrypt                            
00015091  smStartRspTimer                       
000150ad  smStopRspTimer                        
000150bd  sm_d1                                 
00015115  sm_dm                                 
0001513f  sm_c1new                              
0001520d  sm_s1                                 
0001524d  smGenerateRandBuf                     
00015277  smAuthReqToUint8                      
000152a5  smUint8ToAuthReq                      
000152ed  SM_GenerateAuthenSig                  
00015387  SM_VerifyAuthenSig                    
00015654  const_Rb                              
00015665  SM_StartPairing                       
000156f3  SM_PasskeyUpdate                      
00015771  smRegisterInitiator                   
00015779  smRegisterResponder                   
00015781  smLinkCheck                           
000157a3  smTimedOut                            
000157a9  smProcessDataMsg                      
0001587d  smSendFailAndEnd                      
00015899  smProcessEncryptChange                
00015949  smNextPairingState                    
00015979  sm_c1                                 
00015a17  smProcessPairingReq                   
00015a6d  smStartEncryption                     
00015a87  smGeneratePairingReqRsp               
00015ab3  smGenerateConfirm                     
00015acb  smGenerateRandMsg                     
00015af5  smSavePairInfo                        
00015c95  smPairingSendEncInfo                  
00015c9b  smPairingSendMasterID                 
00015cc3  smPairingSendIdentityInfo             
00015ccd  smPairingSendIdentityAddrInfo         
00015cf1  smPairingSendSigningInfo              
00015d41  smEndPairing                          
00015d71  smDetermineKeySize                    
00015e01  smSendFailureEvt                      
00015e49  SM_ResponderInit                      
000163b9  SM_Init                               
000163d5  SM_ProcessEvent                       
000164a1  smpBuildPairingReq                    
000164a9  smpBuildPairingRsp                    
000164af  smpBuildPairingReqRsp                 
00016557  smpParsePairingReq                    
0001662b  smpBuildPairingConfirm                
0001663d  smpParsePairingConfirm                
00016653  smpBuildPairingRandom                 
00016675  smpParsePairingRandom                 
0001668b  smpBuildPairingFailed                 
000166a3  smpParsePairingFailed                 
000166c1  smpBuildEncInfo                       
000166d3  smpParseEncInfo                       
000166e9  smpBuildMasterID                      
0001670d  smpParseMasterID                      
00016731  smpBuildIdentityInfo                  
00016743  smpBuildIdentityAddrInfo              
00016761  smpParseIdentityInfo                  
00016777  smpParseIdentityAddrInfo              
00016793  smpBuildSigningInfo                   
000167a5  smpParseSigningInfo                   
000167bb  smpBuildSecurityReq                   
000167d7  smpParseSecurityReq                   
000167f3  smSendSMMsg                           
0001683d  llProcessSlaveControlPacket           
00016c17  llSetupConnRxDataEntryQueue           
00016cb7  llCreateRxBuffer                      
00016cf5  llCheckRxBuffers                      
00016d1b  llReplaceRxBuffers                    
00016d4d  llSetupRfHal                          
00016d67  llSetupRATChanCompare                 
00016d99  llRatChanCBack_A                      
00016d9b  RFHAL_InitRfHal                       
00016dff  RFHAL_AddTxDataEntry                  
00016e99  LL_RxDataCompleteCback                
00016f41  hciInitEventMasks                     
00016f85  LL_ConnParamUpdateCback               
0001700b  LL_ReadRemoteUsedFeaturesCompleteCback
00017077  HCI_NumOfCompletedPacketsEvent        
00017159  LL_AuthPayloadTimeoutExpiredCback     
000171cf  LL_DataLengthChangeEventCback         
00017285  LL_EnhancedConnectionCompleteCback    
0001749d  HCI_VendorSpecifcCommandCompleteEvent 
00017519  HCI_ValidConnTimeParams               
00017555  HCI_ResetCmd                          
00017577  HCI_ReadLocalSupportedCommandsCmd     
0001758b  HCI_EXT_GetConnInfoCmd                
00017619  HCI_LE_ReadBufSizeCmd                 
00017645  HCI_LE_RemoteConnParamReqReplyCmd     
00017649  HCI_LE_RemoteConnParamReqNegReplyCmd  
0001764d  HCI_LE_ReadRemoteUsedFeaturesCmd      
00017677  HCI_LE_SetDataLenCmd                  
0001768d  HCI_LE_ReadSuggestedDefaultDataLenCmd 
000176a9  HCI_LE_WriteSuggestedDefaultDataLenCmd
000176b9  HCI_LE_ReadMaxDataLenCmd              
000176e9  HCI_LE_TransmitterTestCmd             
000176fb  HCI_LE_ReceiverTestCmd                
00017717  HCI_SetEventMaskPage2Cmd              
00017735  HCI_LE_ConnUpdateCmd                  
00017745  HCI_EXT_ResetSystemCmd                
0001776b  HCI_EXT_DelaySleepCmd                 
0001778d  HCI_EXT_SetMaxDataLenCmd              
000177b5  HCI_EXT_ConnEventNoticeCmd            
000177b9  HCI_LE_SetEventMaskCmd                
000177f1  HCI_ReadLocalVersionInfoCmd           
0001784b  HCI_ReadRssiCmd                       
0001787c  supportedCmdsTable                    
000178c1  llDirAdv_TaskEnd                      
00017923  llAdv_TaskEnd                         
000179eb  llAdv_TaskConnect                     
00017d19  llVerifyConnParamReqParams            
00017d9b  llAllocConnId                         
00017f21  llInitFeatureSet                      
00017f39  llSetupFeatureSetRsp                  
00017f9f  llSetupLenCtrlPkt                     
00018031  llSetupStartEncReq                    
00018073  llProcessTxData                       
000180dd  llConnCleanup                         
000181b7  llDequeueCtrlPkt                      
000181f3  llReplaceCtrlPkt                      
0001821f  llGetNextConn                         
0001826f  llGetMinCI                            
000182db  llFragmentPDU                         
00018353  llCombinePDU                          
00018481  llAlignToNextEvent                    
0001852d  llRfSetup                             
00018575  llRfInit                              
000185e3  llSetTxPower                          
00018633  llGetTxPower                          
00018649  llCheckWhiteListUsage                 
0001865f  llProcessChanMap                      
0001869f  llGetNextDataChan                     
000186eb  llSetNextDataChan                     
00018739  llSendReject                          
00018757  llSetupTermInd                        
000187c5  llWriteTxData                         
00018841  llTime2Octets                         
0001886f  llOctets2Time                         
000188a3  llGetSlowestPhy                       
000188c3  llHaltRadio                           
000188e3  llRfStartFS                           
000189dd  llResetRadio                          
000189df  llHardwareError                       
000189e3  llValidateConnParams                  
00018a79  LL_ENC_Encrypt                        
00018ae7  LL_ENC_Decrypt                        
0001924d  LL_Init                               
000194b3  LL_ProcessEvent                       
000195db  LL_Reset                              
000196f1  LL_EXT_GetConnInfo                    
0001979d  LL_EncLtkReply                        
000197e3  LL_EncLtkNegReply                     
0001981f  LL_ReadRemoteUsedFeatures             
0001986f  LL_EXT_SetLocalSupportedFeatures      
000198ad  LL_EXT_SetTxPower                     
000198dd  LL_EXT_SetMaxDtmTxPower               
000198f9  LL_ReadTxPowerLevel                   
00019937  LL_TxData                             
000199f9  LL_EXT_ModemHopTestTx                 
00019a99  LL_EXT_ModemTestTx                    
00019b1d  LL_EXT_ModemTestRx                    
00019bb5  LL_EXT_EndModemTest                   
00019bdb  LL_DirectTestTxTest                   
00019d6d  LL_DirectTestRxTest                   
00019e89  LL_DirectTestEnd                      
00019f1d  LL_SetAdvParam                        
0001a02d  LL_SetAdvControl                      
0001a13d  LL_ReadSupportedStates                
0001a159  LL_GetNumActiveConns                  
0001a171  LL_SetDataLen                         
0001a1f1  LL_ReadDefaultDataLen                 
0001a21d  LL_WriteDefaultDataLen                
0001a269  LL_ReadMaxDataLen                     
0001a2a1  LL_EXT_SetMaxDataLen                  
0001a2eb  LL_ReadRssi                           
0001a349  LL_EXT_ConnEventNotice                
0001a379  LL_EXT_NumComplPktsLimit              
0001a39b  LL_EXT_BuildRevision                  
0001a3c3  LL_EXT_DisconnectImmed                
0001a46d  llInitRAT                             
0001a46f  llGetCurrentTime                      
0001a47d  llSchedulerInit                       
0001a4af  llAllocTask                           
0001a509  llGetTaskState                        
0001a52b  llActiveTask                          
0001a561  llGetTask                             
0001a591  llScheduleTask                        
0001a625  llSlave_TaskEnd                       
0001a7f7  llSetupNextSlaveEvent                 
0001aa97  llProcessSlaveControlProcedures       
0001ad91  LL_PM_GetRfCoreState                  
0001ad95  LL_PM_Enter_AES                       
0001adab  LL_PM_Exit_AES                        
0001add5  LL_PM_PowerOffRfCore                  
0001add7  WL_Clear                              
0001adfb  WL_GetNumFreeEntries                  
0001ae05  WL_FindEntry                          
0001ae47  WL_SetWlIgnore                        
0001ae67  WL_ClearIgnoreList                    
0001ae85  rfPUpCallback                         
0001ae97  rfCallback                            
0001aec1  LL_DoorbellErrorCback                 
0001aed1  LL_LastCmdDoneCback                   
0001b08f  LL_TxDoneCback                        
0001b0a3  LL_TxEntryDoneCback                   
0001b0bd  LL_RxIgnoredCback                     
0001b0bf  LL_RxEntryDoneCback                   
0001b271  HCI_Init                              
0001b2a3  HCI_ProcessEvent                      
0001b2df  HCI_TestAppTaskRegister               
0001b2e5  HCI_GAPTaskRegister                   
0001b2eb  HCI_L2CAPTaskRegister                 
0001b2f1  HCI_SMPTaskRegister                   
0001b2f7  HCI_ExtTaskRegister                   
0001b319  __TI_auto_init                        
0001b389  __aeabi_lmul                          
0001b3a1  __aeabi_memcpy                        
0001b3a1  __aeabi_memcpy4                       
0001b3a1  __aeabi_memcpy8                       
0001b3a1  memcpy                                
0001b43d  __aeabi_memclr                        
0001b43d  __aeabi_memclr4                       
0001b43d  __aeabi_memclr8                       
0001b43f  __aeabi_memset                        
0001b43f  __aeabi_memset4                       
0001b43f  __aeabi_memset8                       
0001b445  memset                                
0001b4b7  __aeabi_uldivmod                      
0001b6ab  NOROM_CPUcpsie                        
0001b6b7  NOROM_CPUcpsid                        
0001b6c5  osalFindTimer                         
0001b6df  osalAddTimer                          
0001b723  osalDeleteTimer                       
0001b72b  osal_get_timeoutEx                    
0001b76d  osalTimerUpdate                       
0001b84f  osal_timer_refTimeUpdate              
0001b89b  osal_start_timerEx                    
0001b8d5  osal_stop_timerEx                     
0001b905  osal_start_reload_timer               
0001b93b  osalTimerInit                         
0001b94b  osal_next_timeout                     
0001b98d  ROM_Spinlock                          
0001b9c3  CommonROM_Init                        
0001b9e3  ROM_Init                              
0001ba21  NOROM_TRNGConfigure                   
0001ba45  HalTRNG_InitTRNG                      
0001ba61  HalTRNG_GetTRNG                       
0001baa5  halAssertHandler                      
0001baa7  halAssertSpinlock                     
0001baa9  halAssertHandlerExt                   
0001babf  halAssertInit                         
0001bad9  NOROM_IntDisable                      
0001bb41  NOROM_IntEnable                       
0001bb9d  Onboard_soft_reset                    
0001bb9f  appForceBoot                          
0001bba1  Onboard_rand                          
0001bba1  osal_rand                             
0001bbd1  osal_bm_adjust_header                 
0001bbf9  osal_bm_alloc                         
0001bc2b  osal_bm_free                          
0001bc81  osal_memset                           
0001bc85  osal_memcpy                           
0001bc9d  osal_msg_allocate                     
0001bcc1  osal_self                             
0001bcc7  osal_msg_deallocate                   
0001bcfd  osal_msg_extract                      
0001bd33  osal_msg_receive                      
0001bd93  osal_msg_enqueue                      
0001bdc3  osal_msg_push                         
0001be3b  osal_msg_send                         
0001bec1  osal_set_event                        
0001bf55  osal_clear_event                      
0001c00d  osal_service_entry                    
0001c059  osal_enroll_dispatchid                
0001c065  osal_enroll_senderid                  
0001c0a9  osal_init_system                      
0001c1b1  osal_run_system                       
0001c2cb  osal_start_system                     
0001c2e7  osal_strlen                           
0001c2f5  osal_revmemcpy                        
0001c311  osal_memdup                           
0001c32d  osal_memcmp                           
0001c351  osal_isbufset                         
0001c375  osal_build_uint32                     
0001c3a3  osal_buffer_uint32                    
0001c3d5  osal_CbTimerProcessEvent              
0001c45f  osal_CbTimerInit                      
0001c477  osal_CbTimerStop                      
0001c54f  osal_CbTimerStart                     
0001cd97  bleDispatch_ProcessEvent              
0001cdf7  bleDispatch_BMAlloc                   
0001ce23  bleDispatch_BMFree                    
0001ce3b  bleDispatch_Init                      
0001ce4d  osal_snv_write                        
0001ce51  osal_snv_read                         
0001ce55  GAP_DeviceInit                        
0001ceb5  osal_pwrmgr_task_state                
0001cf1f  osal_pwrmgr_init                      
0001cf6d  osalAdjustTimer                       
0001cfbf  osal_mem_alloc                        
0001cfc3  osal_mem_free                         
0001cfe5  setBleUserConfig                      
0001d0a1  osalInitTasks                         
0001d117  stack_main                            
0001d161  strlen                                
0001d175  copy_in                               
0001d22b  __TI_decompress_rle24                 
0001d231  __TI_decompress_none                  
0001d263  GATTServApp_ReadCharCfg               
0001d273  GATTServApp_InitCharCfg               
0001d63c  tasksArr                              
0001d660  R2F_Flash_JT_CommonROM                
0001d678  R2F_Flash_JT                          
0001d720  R2R_Flash_JT_CommonROM                
0001d814  R2R_Flash_JT                          
0001dd40  txPowerTable                          
0001dd44  txPwrTbl                              
0001dd4c  rfCfgVal                              
0001dd50  rxPktSuffix                           
0001dd54  advPktSuffix                          
0001dd58  scanPktSuffix                         
0001dd5c  initPktSuffix                         
0001dd60  wlSize                                
0001dd64  maxPktsPerEvt                         
0001dd68  rfOpLoc                               
0001dd6c  llConfigTable                         
0001dd9c  ll_buildRevision                      
0001dda0  __TI_Handler_Table_Base               
0001dda8  __TI_CINIT_Base                       
0001dda8  __TI_Handler_Table_Limit              
0001ddb8  __TI_CINIT_Limit                      
10005000  A1_rw_1                               
10005000  __checksum_begin                      
10005001  ROM_BASE_ADDR                         
10005004  P1_ro_1                               
10005549  LL_TX_bm_alloc                        
1000556d  LL_RX_bm_alloc                        
100056c9  LL_ReadBDADDR                         
100056e9  LL_SetRandomAddress                   
10005719  LL_ClearWhiteList                     
10005739  LL_AddWhiteListDevice                 
10005765  LL_RemoveWhiteListDevice              
100057a1  LL_ReadWlSize                         
100057b9  LL_NumEmptyWlEntries                  
100057d5  LL_Encrypt                            
100057f5  LL_Rand                               
10005801  LL_PseudoRand                         
10005879  LL_ReadLocalSupportedFeatures         
1000589d  LL_ReadLocalVersionInfo               
100058d5  LL_CtrlToHostFlowControl              
100058e9  LL_ReadRemoteVersionInfo              
100059a1  LL_ReadChanMap                        
10005a39  LL_Disconnect                         
10005f89  LL_SetAdvData                         
10006105  LL_ReadAdvChanTxPower                 
1000612d  LL_SetScanRspData                     
1000678d  LL_ConnActive                         
10006ad9  LL_EXT_SetRxGain                      
10006b59  LL_EXT_OnePacketPerEvent              
10006b7d  LL_EXT_ClkDivOnHalt                   
10006b81  LL_EXT_DeclareNvUsage                 
10006b85  LL_EXT_Decrypt                        
10006bc5  LL_EXT_SetFastTxResponseTime          
10006bdd  LL_EXT_SetSlaveLatencyOverride        
10006e01  LL_EXT_SetBDADDR                      
10006e85  LL_EXT_SetSCA                         
10006ef9  LL_EXT_SetFreqTune                    
10006efd  LL_EXT_SaveFreqTune                   
10006f49  LL_EXT_MapPmIoPort                    
10006f99  LL_EXT_PacketErrorRate                
10006fed  LL_EXT_PERbyChan                      
1000701d  LL_EXT_ExtendRfRange                  
10007021  LL_EXT_HaltDuringRf                   
10007025  LL_EXT_AdvEventNotice                 
100070a1  LL_EXT_DelaySleep                     
100070d5  LL_EXT_ResetSystem                    
10007109  LL_EXT_OverlappedProcessing           
100072e1  llSetFreqTune                         
100072e5  llDisableRfInts                       
100072e9  llClearRfInts                         
100072ed  llEnableRfInts                        
100072f1  llProcessPostRfOps                    
100073e5  llSetupAdv                            
100075fd  llSetupScan                           
100077b5  llSetupInit                           
100079c9  llSetupUpdateParamReq                 
10007aed  llSetupEncReq                         
10007b95  llSetupEncRsp                         
10007ca9  llSetupStartEncRsp                    
10007cfd  llSetupPauseEncReq                    
10007d55  llSetupPauseEncRsp                    
10007df5  llSetupRejectInd                      
10007f29  llSetupVersionIndReq                  
10008069  llSetupUnknownRsp                     
100080bd  llEnqueueCtrlPkt                      
100082f1  llAtLeastTwoChans                     
10008429  llReleaseConnId                       
10008461  llReleaseAllConnId                    
10008631  llConnTerminate                       
10008665  llPendingUpdateParam                  
100086b9  llGenerateCRC                         
100086f1  llEventInRange                        
10008719  llEventDelta                          
10008721  llConvertLstoToEvent                  
10008741  llConvertCtrlProcTimeoutToEvent       
10008889  llEnqueueDataQ                        
100088b5  llEnqueueHeadDataQ                    
10008921  llDequeueDataQ                        
10008965  llDataQFull                           
10008985  llDataQEmpty                          
100089d9  llMemCopySrc                          
100089f1  llMemCopyDst                          
10008a2d  HCI_DataBufferOverflowEvent           
10008add  HCI_CommandCompleteEvent              
10008ba1  HCI_CommandStatusEvent                
10008bf5  HCI_HardwareErrorEvent                
10008c59  HCI_SendCommandStatusEvent            
10008c81  HCI_SendCommandCompleteEvent          
10008d31  HCI_SendControllerToHostEvent         
10008d81  LL_AdvReportCback                     
10008ead  LL_ConnectionCompleteCback            
10009005  LL_DisconnectCback                    
100091e1  LL_ReadRemoteVersionInfoCback         
1000925d  LL_EncLtkReqCback                     
1000933d  LL_EncChangeCback                     
100093dd  LL_EncKeyRefreshCback                 
10009471  LL_DirectTestEndDoneCback             
100094a1  HCI_bm_alloc                          
100094e9  HCI_SendDataPkt                       
10009525  HCI_DisconnectCmd                     
10009541  HCI_ReadRemoteVersionInfoCmd          
10009571  HCI_SetEventMaskCmd                   
100095d1  HCI_ReadTransmitPowerLevelCmd         
100095f5  HCI_SetControllerToHostFlowCtrlCmd    
10009631  HCI_HostBufferSizeCmd                 
1000965d  HCI_HostNumCompletedPktCmd            
1000973d  HCI_ReadLocalSupportedFeaturesCmd     
10009765  HCI_ReadBDADDRCmd                     
10009829  HCI_LE_ReadLocalSupportedFeaturesCmd  
10009849  HCI_LE_SetRandomAddressCmd            
1000986d  HCI_LE_SetAdvParamCmd                 
100098a1  HCI_LE_SetAdvDataCmd                  
100098bd  HCI_LE_SetScanRspDataCmd              
100098d9  HCI_LE_SetAdvEnableCmd                
100098f5  HCI_LE_ReadAdvChanTxPowerCmd          
10009915  HCI_LE_SetScanParamCmd                
10009941  HCI_LE_SetScanEnableCmd               
1000995d  HCI_LE_CreateConnCmd                  
1000999d  HCI_LE_CreateConnCancelCmd            
100099c9  HCI_LE_ReadWhiteListSizeCmd           
100099f9  HCI_LE_ClearWhiteListCmd              
10009a15  HCI_LE_AddWhiteListCmd                
10009a31  HCI_LE_RemoveWhiteListCmd             
10009a85  HCI_LE_SetHostChanClassificationCmd   
10009aa1  HCI_LE_ReadChannelMapCmd              
10009af5  HCI_LE_EncryptCmd                     
10009b51  HCI_LE_RandCmd                        
10009ba9  HCI_LE_StartEncyptCmd                 
10009bc5  HCI_LE_LtkReqReplyCmd                 
10009be1  HCI_LE_LtkReqNegReplyCmd              
10009c15  HCI_LE_ReadSupportedStatesCmd         
10009c8d  HCI_LE_TestEndCmd                     
10009cd5  HCI_EXT_SetRxGainCmd                  
10009d09  HCI_EXT_SetTxPowerCmd                 
10009d45  HCI_EXT_OnePktPerEvtCmd               
10009d79  HCI_EXT_ClkDivOnHaltCmd               
10009dad  HCI_EXT_DeclareNvUsageCmd             
10009dd1  HCI_EXT_DecryptCmd                    
10009e2d  HCI_EXT_SetLocalSupportedFeaturesCmd  
10009e4d  HCI_EXT_SetFastTxResponseTimeCmd      
10009e6d  HCI_EXT_SetSlaveLatencyOverrideCmd    
10009e8d  HCI_EXT_ModemTestTxCmd                
10009ead  HCI_EXT_ModemHopTestTxCmd             
10009ecd  HCI_EXT_ModemTestRxCmd                
10009eed  HCI_EXT_EndModemTestCmd               
10009f0d  HCI_EXT_SetBDADDRCmd                  
10009f49  HCI_EXT_SetSCACmd                     
10009f69  HCI_EXT_EnablePTMCmd                  
10009f81  HCI_EXT_SetFreqTuneCmd                
10009fb1  HCI_EXT_SaveFreqTuneCmd               
10009fd1  HCI_EXT_SetMaxDtmTxPowerCmd           
10009ff1  HCI_EXT_MapPmIoPortCmd                
1000a011  HCI_EXT_DisconnectImmedCmd            
1000a031  HCI_EXT_PacketErrorRateCmd            
1000a075  HCI_EXT_PERbyChanCmd                  
1000a095  HCI_EXT_ExtendRfRangeCmd              
1000a0d1  HCI_EXT_HaltDuringRfCmd               
1000a0f1  HCI_EXT_AdvEventNoticeCmd             
1000a109  HCI_EXT_BuildRevisionCmd              
1000a195  HCI_EXT_OverlappedProcessingCmd       
1000a1b5  HCI_EXT_NumComplPktsLimitCmd          
1000a1d5  LL_RandCback                          
1000a201  LL_EXT_SetRxGainCback                 
1000a211  LL_EXT_SetTxPowerCback                
1000a259  LL_EXT_PacketErrorRateCback           
1000a2ad  LL_EXT_ExtendRfRangeCback             
1000a335  llScheduler                           
1000a895  llFindStartType                       
1000a939  llFindNextSecTask                     
1000abed  llFreeTask                            
1000ac3d  llGetCurrentTask                      
1000aca9  llGetActiveTasks                      
1000ace1  llGetNumTasks                         
1000adb1  llPatchCM0                            
1000ae41  llRatChanCBack_B                      
1000ae45  llRatChanCBack_C                      
1000ae49  llRatChanCBack_D                      
1000ae4d  llSetupScanDataEntryQueue             
1000ae95  llSetupInitDataEntryQueue             
1000aeb1  llSetupAdvDataEntryQueue              
1000afa1  llMoveTempTxDataEntries               
1000b009  llGetNumTxDataEntries                 
1000b4c9  LL_ENC_Init                           
1000b4ed  LL_ENC_ReverseBytes                   
1000b50d  LL_ENC_GeneratePseudoRandNum          
1000b51d  LL_ENC_GenerateTrueRandNum            
1000b541  LL_ENC_GenDeviceSKD                   
1000b555  LL_ENC_GenDeviceIV                    
1000b569  LL_ENC_GenerateNonce                  
1000b58d  LL_ENC_LoadKey                        
1000b5f5  LL_ENC_AES128_Encrypt                 
1000b639  LL_ENC_AES128_Decrypt                 
1000b721  LL_ENC_EncryptMsg                     
1000b851  LL_ENC_DecryptMsg                     
1000c1b5  llCheckForLstoDuringSL                
1000cd51  llAdv_TaskAbort                       
1000d189  WL_Init                               
1000d1f5  WL_ClearEntry                         
1000d229  WL_GetSize                            
1000d2d9  WL_AddEntry                           
1000d36d  WL_RemoveEntry                        
1000d4ad  llGetAdvChanPDU                       
1000d695  llGenerateValidAccessAddr             
1000d6b1  llGtSixConsecZerosOrOnes              
1000d6e5  llEqSynchWord                         
1000d6f5  llOneBitSynchWordDiffer               
1000d709  llEqualBytes                          
1000d731  llGtTwentyFourTransitions             
1000d761  llLtTwoChangesInLastSixBits           
1000d795  llEqAlreadyValidAddr                  
1000d7cd  HCI_ReverseBytes                      
1000d8c9  llTimeCompare                         
1000d8f5  llTimeDelta                           
1000d94d  llCalcScaFactor                       
1000d964  SCA                                   
1000d9b0  advChan                               
1000d9b4  advEvt2Cmd                            
1000d9c0  advEvt2State                          
1000d9e1  llTaskError                           
1000d9ec  Fill1_1                               
1000dffc  A3_rw_1                               
1000dffc  romRev                                
1000dffd  __checksum_end                        
1000dffe  A2_rw_1                               
1000dffe  P1_ro_2_1                             
1000dffe  __checksum                            
10014c00  A1_rw                                 
10014c00  __checksum_begin_CommonROM            
10014c01  COMMON_ROM_BASE_ADDR                  
10014c04  P1_ro                                 
10014c05  SCALARMUL_init                        
10014ced  SCALARMUL_core                        
10015019  SCALARMUL_final                       
100150e5  SCALARMUL                             
10015101  SAVEPOINT                             
10015141  GETBIT                                
10015155  GETDIGIT                              
100151a5  GETDIGITL2R                           
10015215  SelectReg                             
10015229  ATOMICPATTERN                         
100154f5  JACADD                                
1001568d  INVERT                                
10015821  SQUAREMULTIPLYWORD                    
1001588c  LUTOPCODE                             
10015894  LUTOPSIGN                             
100158ac  LUTC                                  
100158c4  LUTSE                                 
100158dc  LUTINCI                               
100158f4  LUTJ                                  
1001596c  LUTSTATE                              
100159a9  IMPORTLENGTH                          
100159ad  IMPORTMODULUS                         
100159d1  IMPORTOPERAND                         
10015a11  EXPORTOPERAND                         
10015a35  IMPORTDATA                            
10015a51  SETOPERAND                            
10015a6d  COPY                                  
10015a85  ZERO                                  
10015a91  SETWORD                               
10015a9d  mSET                                  
10015bcd  zSET                                  
10015bd5  mINVK                                 
10015d19  zADD                                  
10015d5d  zSUB                                  
10015de9  zMACC32                               
10015e69  zSUB32                                
10015eb5  zADD32                                
10015f0d  zMULT32                               
10015f81  mMULT                                 
10016551  mADD                                  
1001664d  mSUB                                  
10016749  mOUT                                  
10016975  ssp_KeyInit_Sw                        
10016979  sspAesEncrypt_Sw                      
10016985  sspKeyExpansion_Sw                    
10016a99  sspAesEncryptKeyExp_Sw                
10016af5  sspAesEncryptBasic_Sw                 
10016b79  RoundKey_Sw                           
10016c29  AddRoundKeySubBytes_Sw                
10016c45  ShiftRows_Sw                          
10016c79  MixColumns_Sw                         
10016d05  FFMult_Sw                             
10016d29  sspAesDecrypt_Sw                      
10016da1  InvAddRoundKey_Sw                     
10016dc9  InvRoundKey_Sw                        
10016e8d  InvSubBytes_Sw                        
10016ea1  InvShiftRows_Sw                       
10016ed5  InvMixColumns_Sw                      
10016f58  FFMult2                               
10017058  FFMult3                               
10017158  RCon                                  
10017164  Sbox                                  
10017264  InvSbox                               
10017365  SSP_CCM_Auth_Sw                       
100174fd  SSP_CCM_Encrypt_Sw                    
100175ed  SSP_CTR_Encrypt_Sw                    
1001767d  SSP_CCM_Decrypt_Sw                    
10017771  SSP_CTR_Decrypt_Sw                    
10017839  SSP_CCM_InvAuth_Sw                    
10017895  SSP_CCM_Auth_Encrypt_Sw               
100178f5  SSP_CCM_InvAuth_Decrypt_Sw            
10017959  ECC_allocWorkzone                     
10017961  ECC_setWin                            
10017969  ECDSA_sign                            
10017b01  ECDSA_verif                           
10017dbd  ECC_keyGen                            
10017ded  ECDH_commonKey                        
10017e39  SHA256_updateW                        
10017e75  SHA256_round                          
10017ef1  SHA256_nextState                      
10017f49  SHA256_saveBuffer                     
10017ffd  SHA256_init                           
10018019  SHA256_process                        
10018089  SHA256_final                          
10018129  SHA256_full                           
10018315  RFHAL_AllocRatChan                    
1001833d  RFHAL_FreeRatChan                     
10018369  RFHAL_MapRatChansToInt                
10018391  RFHAL_RegisterRatChanCallback         
100183b9  RFHAL_InitDataQueue                   
100183c5  RFHAL_QueueRFDataEntries              
10018485  RFHAL_FreeNextTxDataEntry             
100184a9  RFHAL_AllocDataEntryQueue             
100184c5  RFHAL_FreeDataEntryQueue              
100184cd  RFHAL_GetNextDataEntry                
100184d1  RFHAL_GetTempDataEntry                
100184d5  RFHAL_NextDataEntryDone               
100184f9  RFHAL_AllocDataEntry                  
10018549  RFHAL_FreeDataEntry                   
10018551  RFHAL_BuildRingBuffer                 
100185e1  RFHAL_BuildDataEntryRingBuffer        
10018669  RFHAL_BuildLinkedBuffer               
10018a19  AesCcm_authEncrypt_Sw                 
10018a35  AesCcm_decryptAuth_Sw                 
10018a99  Aes_encrypt_Sw                        
10018ac5  Aes_decrypt_Sw                        
10018b09  AesCcm_getNumBlocks_Sw                
10018b0c  NIST256_p                             
10018b30  NIST256_r                             
10018b54  NIST256_a                             
10018b78  NIST256_b                             
10018b9c  NIST256_Gx                            
10018bc0  NIST256_Gy                            
10018ced  __exit                                
10018d6c  Fill1                                 
10019ffc  A3_rw                                 
10019ffd  __checksum_end_CommonROM              
10019ffe  A2_rw                                 
10019ffe  P1_ro_2                               
10019ffe  __checksum_CommonROM                  
200043fc  pGapDiscReq                           
20004400  pGapAdvertState                       
20004404  gapState                              
20004405  gattNumConns                          
20004406  gattTaskID                            
20004408  pfnPeripheralConnCBs                  
2000440c  pfnBondMgrCBs                         
20004414  serverInfoTbl                         
20004438  GATTServApp_TaskID                    
20004448  l2capFixedChannels                    
20004478  l2capId                               
20004479  smTaskID                              
2000447c  linkDBNumConns                        
200044b4  pPairingParams                        
200044b8  pfnResponderCBs                       
200044c0  pBleEvtMask                           
200044c8  pHciEvtMask2                          
200044d0  rfEvent                               
200044d8  hciTaskID                             
200044d9  hciTestTaskID                         
200044da  hciGapTaskID                          
200044db  hciL2capTaskID                        
200044dc  hciSmpTaskID                          
200044dd  hciExtTaskID                          
200044e4  bleDispatch_TaskID                    
200044e5  rspBuf                                
20004520  timerHead                             
20004524  osal_last_timestamp                   
2000452c  ICall_dispatcher                      
20004530  ICall_enterCriticalSection            
20004534  ICall_leaveCriticalSection            
20004538  tasksEvents                           
2000455c  gapAppTaskID                          
2000455d  gapProfileRole                        
2000455e  gapDeviceAddrMode                     
2000455f  gapAutoAdvPrivateAddrChange           
20004560  gapPrivateAddrChangeTimeout           
200045c0  slaveUpdateReq                        
200045c8  slaveConnHandle                       
200045cc  pEstLink                              
200045d0  pAuthLink                             
200045d4  pfnCentralConnCBs                     
200045f8  gapTaskID                             
200045f9  gapUnwantedTaskID                     
200045fc  pfnPeripheralCBs                      
20004607  reqTaskId                             
200046a4  gattAppTaskID                         
200046a5  appTaskID                             
200046a6  l2capMtuSize                          
200046b8  l2capTaskID                           
200046b9  l2capNumChannels                      
200046ba  l2capNumDataPkts                      
200046bc  l2capChannels                         
200046dc  llUserConfig                          
20004700  fwParDtmCmd                           
20004718  maxPduSize                            
20004719  rfFeModeBias                          
2000471a  maxNumTxDataBufs                      
2000471c  advInfoExt                            
20004720  fwImmedCmd                            
20004728  rfCmdHandle                           
2000472a  connInitialMaxTxOctets                
2000472c  connInitialMaxTxTime                  
2000472e  supportedMaxTxOctets                  
20004730  supportedMaxTxTime                    
20004732  supportedMaxRxOctets                  
20004734  supportedMaxRxTime                    
20004738  rfHandle                              
2000473c  rfDrvTblPtr                           
20004740  llConnectionExt                       
20004744  trngDrvTblPtr                         
20004748  SysBootMsg                            
2000474c  sclkSrc                               
20004750  rfMode                                
20004760  rfParams                              
20004774  rfSetup                               
20004790  rfObject                              
20004828  assertSubcause                        
20004829  legacyMode                            
2000482c  halAssertCback                        
20004831  osal_entity                           
20004834  osal_qHead                            
20004838  osal_eventloop_hook                   
2000483c  osal_semaphore                        
20004840  osal_tickperiod                       
20004844  osal_max_msecs                        
2000485c  baseTaskID                            
20004860  cbTimers                              
200048dc  OSAL_timeSeconds                      
200048e0  pwrmgr_initialized                    
200048e2  pwrmgr_attribute                      
200048e8  A4_rw_1                               
200048e8  RAM_BASE_ADDR                         
200048fc  P2_zi_1                               
200048fc  scanDataEntry                         
200049dc  scanDataQueue                         
200049ec  advInfo                               
20004a8c  wlTable                               
20004b10  wlTableScan                           
20004b94  initDataEntry                         
20004bcc  initDataQueue                         
20004bdc  advDataEntry                          
20004c14  advDataQueue                          
20004c24  advCmd                                
20004c6c  ownPublicAddr                         
20004c74  ownRandomAddr                         
20004c7c  ownSavedPublicAddr                    
20004c84  LL_TaskID                             
20004c85  maxTxPwrForDTM                        
20004c86  onePktPerEvt                          
20004c87  numComplPktsLimit                     
20004c88  numComplPktsFlush                     
20004c89  slOverride                            
20004c8a  rxFifoFlowCtrl                        
20004c8b  numTxDataBufs                         
20004c8c  verInfo                               
20004c94  rfCfgAdiVal                           
20004c96  sleepDelay                            
20004c98  buildInfo                             
20004c9c  peerInfo                              
20004ca8  chanMapUpdate                         
20004cb0  llConns                               
20004cb8  llState                               
20004cb9  curTxPowerVal                         
20004cba  numComplPkts                          
20004cbb  fastTxRespTime                        
20004cbc  maxNumConns                           
20004cbe  postRfOperations                      
20004cc0  rssiCorrection                        
20004cc4  taskEndAction                         
20004cf0  initParam                             
20004d14  scanParam                             
20004d38  slvParam                              
20004d58  advParam                              
20004d78  txModemTestCmd                        
20004d94  scanInfo                              
20004db0  initCmd                               
20004dc8  connReqData                           
20004de0  slvCmd                                
20004df8  scanCmd                               
20004e10  scanOutput                            
20004e28  trxTestCmd                            
20004e40  rxModemTestCmd                        
20004e58  initInfo                              
20004e70  connOutput                            
20004e84  rxTestParam                           
20004e98  advOutput                             
20004ea8  txTestParam                           
20004eb8  initOutput                            
20004ec4  rxTestOut                             
20004ed0  deviceFeatureSet                      
20004edc  dtmInfo                               
20004ee8  cachedTRNGdata                        
20004ef4  llTaskList                            
20004f00  pHciEvtMask                           
20004f08  bleEvtMask                            
20004f0a  taskEndStatus                         
20004f0c  rxDataQ                               
20004f10  rxRingBuf                             
20004f14  mstCmd                                
20004f18  mstParam                              
20004f1c  txDataQ                               
20004f20  txTestOut                             
20004f24  ctrlToHostEnable                      
20004f26  numHostBufs                           
20004f28  hciPTMenabled                         
20004f2c  A4_rw                                 
20004f2c  COMMON_RAM_BASE_ADDR                  
20004f40  P2_rw                                 
20004f40  P2_s0                                 
20004f40  win                                   
20004f44  workzone                              
20004f48  data_p                                
20004f4c  data_r                                
20004f50  data_a                                
20004f54  inScalar                              
20004f58  inPointX                              
20004f5c  inPointY                              
20004f60  outPointX                             
20004f64  outPointY                             
20004f68  SCAL                                  
20004f6c  EXPX                                  
20004f70  EXPY                                  
20004f74  EXPZ                                  
20004f78  EXPW                                  
20004f7c  ACCX                                  
20004f80  ACCY                                  
20004f84  ACCZ                                  
20004f88  TMP1                                  
20004f8c  TMP2                                  
20004f90  TMP3                                  
20004f94  TMP4                                  
20004f98  TMP5                                  
20004f9c  TMP6                                  
20004fa0  data_Gx                               
20004fa4  data_Gy                               
20004fa8  data_b                                
20004fac  P2_zi                                 
20004fac  ratChanInfo                           
20004fcc  fwInfoCmd                             
20004fd8  MSBMOD                                
20004fdc  aux64                                 
20004fe4  MOD                                   
20004fe8  LEN                                   
20004ffc  pSspAesEncrypt_Sw                     
ffffffff  __TI_pprof_out_hndl                   
ffffffff  __TI_prof_data_size                   
ffffffff  __TI_prof_data_start                  
ffffffff  __binit__                             
ffffffff  __c_args__                            
ffffffff  binit                                 
UNDEFED   SHT$$INIT_ARRAY$$Base                 
UNDEFED   SHT$$INIT_ARRAY$$Limit                

[1172 symbols]
